
ctarget:     file format elf64-x86-64


Disassembly of section .text:

0000000000421300 <_start>:
  421300:	31 ed                	xor    %ebp,%ebp
  421302:	49 89 d1             	mov    %rdx,%r9
  421305:	5e                   	pop    %rsi
  421306:	48 89 e2             	mov    %rsp,%rdx
  421309:	48 83 e4 f0          	and    $0xfffffffffffffff0,%rsp
  42130d:	50                   	push   %rax
  42130e:	54                   	push   %rsp
  42130f:	49 c7 c0 b0 33 42 00 	mov    $0x4233b0,%r8
  421316:	48 c7 c1 40 33 42 00 	mov    $0x423340,%rcx
  42131d:	48 c7 c7 c0 15 42 00 	mov    $0x4215c0,%rdi
  421324:	e8 07 fb fd ff       	callq  400e30 <__libc_start_main@plt>
  421329:	f4                   	hlt    
  42132a:	66 0f 1f 44 00 00    	nopw   0x0(%rax,%rax,1)

0000000000421330 <deregister_tm_clones>:
  421330:	b8 d7 54 62 00       	mov    $0x6254d7,%eax
  421335:	55                   	push   %rbp
  421336:	48 2d d0 54 62 00    	sub    $0x6254d0,%rax
  42133c:	48 83 f8 0e          	cmp    $0xe,%rax
  421340:	48 89 e5             	mov    %rsp,%rbp
  421343:	77 02                	ja     421347 <deregister_tm_clones+0x17>
  421345:	5d                   	pop    %rbp
  421346:	c3                   	retq   
  421347:	b8 00 00 00 00       	mov    $0x0,%eax
  42134c:	48 85 c0             	test   %rax,%rax
  42134f:	74 f4                	je     421345 <deregister_tm_clones+0x15>
  421351:	5d                   	pop    %rbp
  421352:	bf d0 54 62 00       	mov    $0x6254d0,%edi
  421357:	ff e0                	jmpq   *%rax
  421359:	0f 1f 80 00 00 00 00 	nopl   0x0(%rax)

0000000000421360 <register_tm_clones>:
  421360:	b8 d0 54 62 00       	mov    $0x6254d0,%eax
  421365:	55                   	push   %rbp
  421366:	48 2d d0 54 62 00    	sub    $0x6254d0,%rax
  42136c:	48 c1 f8 03          	sar    $0x3,%rax
  421370:	48 89 e5             	mov    %rsp,%rbp
  421373:	48 89 c2             	mov    %rax,%rdx
  421376:	48 c1 ea 3f          	shr    $0x3f,%rdx
  42137a:	48 01 d0             	add    %rdx,%rax
  42137d:	48 d1 f8             	sar    %rax
  421380:	75 02                	jne    421384 <register_tm_clones+0x24>
  421382:	5d                   	pop    %rbp
  421383:	c3                   	retq   
  421384:	ba 00 00 00 00       	mov    $0x0,%edx
  421389:	48 85 d2             	test   %rdx,%rdx
  42138c:	74 f4                	je     421382 <register_tm_clones+0x22>
  42138e:	5d                   	pop    %rbp
  42138f:	48 89 c6             	mov    %rax,%rsi
  421392:	bf d0 54 62 00       	mov    $0x6254d0,%edi
  421397:	ff e2                	jmpq   *%rdx
  421399:	0f 1f 80 00 00 00 00 	nopl   0x0(%rax)

00000000004213a0 <__do_global_dtors_aux>:
  4213a0:	80 3d 51 41 20 00 00 	cmpb   $0x0,0x204151(%rip)        # 6254f8 <completed.6355>
  4213a7:	75 11                	jne    4213ba <__do_global_dtors_aux+0x1a>
  4213a9:	55                   	push   %rbp
  4213aa:	48 89 e5             	mov    %rsp,%rbp
  4213ad:	e8 7e ff ff ff       	callq  421330 <deregister_tm_clones>
  4213b2:	5d                   	pop    %rbp
  4213b3:	c6 05 3e 41 20 00 01 	movb   $0x1,0x20413e(%rip)        # 6254f8 <completed.6355>
  4213ba:	f3 c3                	repz retq 
  4213bc:	0f 1f 40 00          	nopl   0x0(%rax)

00000000004213c0 <frame_dummy>:
  4213c0:	48 83 3d 48 3a 20 00 	cmpq   $0x0,0x203a48(%rip)        # 624e10 <__JCR_END__>
  4213c7:	00 
  4213c8:	74 1e                	je     4213e8 <frame_dummy+0x28>
  4213ca:	b8 00 00 00 00       	mov    $0x0,%eax
  4213cf:	48 85 c0             	test   %rax,%rax
  4213d2:	74 14                	je     4213e8 <frame_dummy+0x28>
  4213d4:	55                   	push   %rbp
  4213d5:	bf 10 4e 62 00       	mov    $0x624e10,%edi
  4213da:	48 89 e5             	mov    %rsp,%rbp
  4213dd:	ff d0                	callq  *%rax
  4213df:	5d                   	pop    %rbp
  4213e0:	e9 7b ff ff ff       	jmpq   421360 <register_tm_clones>
  4213e5:	0f 1f 00             	nopl   (%rax)
  4213e8:	e9 73 ff ff ff       	jmpq   421360 <register_tm_clones>
  4213ed:	0f 1f 00             	nopl   (%rax)

00000000004213f0 <usage>:
  4213f0:	48 83 ec 08          	sub    $0x8,%rsp
  4213f4:	48 89 fe             	mov    %rdi,%rsi
  4213f7:	83 3d 2a 41 20 00 00 	cmpl   $0x0,0x20412a(%rip)        # 625528 <is_checker>
  4213fe:	74 39                	je     421439 <usage+0x49>
  421400:	bf d0 33 42 00       	mov    $0x4233d0,%edi
  421405:	b8 00 00 00 00       	mov    $0x0,%eax
  42140a:	e8 51 f9 fd ff       	callq  400d60 <printf@plt>
  42140f:	bf 08 34 42 00       	mov    $0x423408,%edi
  421414:	e8 97 f9 fd ff       	callq  400db0 <puts@plt>
  421419:	bf 80 35 42 00       	mov    $0x423580,%edi
  42141e:	e8 8d f9 fd ff       	callq  400db0 <puts@plt>
  421423:	bf 30 34 42 00       	mov    $0x423430,%edi
  421428:	e8 83 f9 fd ff       	callq  400db0 <puts@plt>
  42142d:	bf 9a 35 42 00       	mov    $0x42359a,%edi
  421432:	e8 79 f9 fd ff       	callq  400db0 <puts@plt>
  421437:	eb 2d                	jmp    421466 <usage+0x76>
  421439:	bf b6 35 42 00       	mov    $0x4235b6,%edi
  42143e:	b8 00 00 00 00       	mov    $0x0,%eax
  421443:	e8 18 f9 fd ff       	callq  400d60 <printf@plt>
  421448:	bf 58 34 42 00       	mov    $0x423458,%edi
  42144d:	e8 5e f9 fd ff       	callq  400db0 <puts@plt>
  421452:	bf 80 34 42 00       	mov    $0x423480,%edi
  421457:	e8 54 f9 fd ff       	callq  400db0 <puts@plt>
  42145c:	bf d4 35 42 00       	mov    $0x4235d4,%edi
  421461:	e8 4a f9 fd ff       	callq  400db0 <puts@plt>
  421466:	bf 00 00 00 00       	mov    $0x0,%edi
  42146b:	e8 60 f9 fd ff       	callq  400dd0 <exit@plt>

0000000000421470 <initialize_target>:
  421470:	55                   	push   %rbp
  421471:	53                   	push   %rbx
  421472:	48 81 ec 08 21 00 00 	sub    $0x2108,%rsp
  421479:	89 f5                	mov    %esi,%ebp
  42147b:	89 3d 97 40 20 00    	mov    %edi,0x204097(%rip)        # 625518 <check_level>
  421481:	8b 3d 01 3d 20 00    	mov    0x203d01(%rip),%edi        # 625188 <target_id>
  421487:	e8 32 1c 00 00       	callq  4230be <gencookie>
  42148c:	89 05 92 40 20 00    	mov    %eax,0x204092(%rip)        # 625524 <cookie>
  421492:	89 c7                	mov    %eax,%edi
  421494:	e8 25 1c 00 00       	callq  4230be <gencookie>
  421499:	89 05 81 40 20 00    	mov    %eax,0x204081(%rip)        # 625520 <authkey>
  42149f:	8b 05 e3 3c 20 00    	mov    0x203ce3(%rip),%eax        # 625188 <target_id>
  4214a5:	8d 78 01             	lea    0x1(%rax),%edi
  4214a8:	e8 93 f9 fd ff       	callq  400e40 <srandom@plt>
  4214ad:	e8 8e fa fd ff       	callq  400f40 <random@plt>
  4214b2:	89 c7                	mov    %eax,%edi
  4214b4:	e8 ca 02 00 00       	callq  421783 <scramble>
  4214b9:	89 c3                	mov    %eax,%ebx
  4214bb:	bf 00 00 00 00       	mov    $0x0,%edi
  4214c0:	e8 db fa fd ff       	callq  400fa0 <time@plt>
  4214c5:	89 c7                	mov    %eax,%edi
  4214c7:	e8 74 f9 fd ff       	callq  400e40 <srandom@plt>
  4214cc:	85 ed                	test   %ebp,%ebp
  4214ce:	74 07                	je     4214d7 <initialize_target+0x67>
  4214d0:	e8 6b fa fd ff       	callq  400f40 <random@plt>
  4214d5:	eb 05                	jmp    4214dc <initialize_target+0x6c>
  4214d7:	b8 00 00 00 00       	mov    $0x0,%eax
  4214dc:	01 c3                	add    %eax,%ebx
  4214de:	0f b7 db             	movzwl %bx,%ebx
  4214e1:	8d 04 dd 00 01 00 00 	lea    0x100(,%rbx,8),%eax
  4214e8:	89 c0                	mov    %eax,%eax
  4214ea:	48 89 05 cf 3f 20 00 	mov    %rax,0x203fcf(%rip)        # 6254c0 <buf_offset>
  4214f1:	c6 05 50 4c 20 00 63 	movb   $0x63,0x204c50(%rip)        # 626148 <target_prefix>
  4214f8:	83 3d c9 3f 20 00 00 	cmpl   $0x0,0x203fc9(%rip)        # 6254c8 <notify>
  4214ff:	0f 84 b1 00 00 00    	je     4215b6 <initialize_target+0x146>
  421505:	83 3d 1c 40 20 00 00 	cmpl   $0x0,0x20401c(%rip)        # 625528 <is_checker>
  42150c:	0f 85 a4 00 00 00    	jne    4215b6 <initialize_target+0x146>
  421512:	be 00 01 00 00       	mov    $0x100,%esi
  421517:	48 89 e7             	mov    %rsp,%rdi
  42151a:	e8 a1 f9 fd ff       	callq  400ec0 <gethostname@plt>
  42151f:	85 c0                	test   %eax,%eax
  421521:	74 25                	je     421548 <initialize_target+0xd8>
  421523:	bf b0 34 42 00       	mov    $0x4234b0,%edi
  421528:	e8 83 f8 fd ff       	callq  400db0 <puts@plt>
  42152d:	bf 08 00 00 00       	mov    $0x8,%edi
  421532:	e8 99 f8 fd ff       	callq  400dd0 <exit@plt>
  421537:	48 89 e6             	mov    %rsp,%rsi
  42153a:	e8 a1 f8 fd ff       	callq  400de0 <strcasecmp@plt>
  42153f:	85 c0                	test   %eax,%eax
  421541:	74 21                	je     421564 <initialize_target+0xf4>
  421543:	83 c3 01             	add    $0x1,%ebx
  421546:	eb 05                	jmp    42154d <initialize_target+0xdd>
  421548:	bb 00 00 00 00       	mov    $0x0,%ebx
  42154d:	48 63 c3             	movslq %ebx,%rax
  421550:	48 8b 3c c5 a0 51 62 	mov    0x6251a0(,%rax,8),%rdi
  421557:	00 
  421558:	48 85 ff             	test   %rdi,%rdi
  42155b:	75 da                	jne    421537 <initialize_target+0xc7>
  42155d:	b8 00 00 00 00       	mov    $0x0,%eax
  421562:	eb 05                	jmp    421569 <initialize_target+0xf9>
  421564:	b8 01 00 00 00       	mov    $0x1,%eax
  421569:	85 c0                	test   %eax,%eax
  42156b:	75 17                	jne    421584 <initialize_target+0x114>
  42156d:	48 89 e6             	mov    %rsp,%rsi
  421570:	bf e8 34 42 00       	mov    $0x4234e8,%edi
  421575:	e8 e6 f7 fd ff       	callq  400d60 <printf@plt>
  42157a:	bf 08 00 00 00       	mov    $0x8,%edi
  42157f:	e8 4c f8 fd ff       	callq  400dd0 <exit@plt>
  421584:	48 8d bc 24 00 01 00 	lea    0x100(%rsp),%rdi
  42158b:	00 
  42158c:	e8 c4 18 00 00       	callq  422e55 <init_driver>
  421591:	85 c0                	test   %eax,%eax
  421593:	79 21                	jns    4215b6 <initialize_target+0x146>
  421595:	48 8d b4 24 00 01 00 	lea    0x100(%rsp),%rsi
  42159c:	00 
  42159d:	bf 28 35 42 00       	mov    $0x423528,%edi
  4215a2:	b8 00 00 00 00       	mov    $0x0,%eax
  4215a7:	e8 b4 f7 fd ff       	callq  400d60 <printf@plt>
  4215ac:	bf 08 00 00 00       	mov    $0x8,%edi
  4215b1:	e8 1a f8 fd ff       	callq  400dd0 <exit@plt>
  4215b6:	48 81 c4 08 21 00 00 	add    $0x2108,%rsp
  4215bd:	5b                   	pop    %rbx
  4215be:	5d                   	pop    %rbp
  4215bf:	c3                   	retq   

00000000004215c0 <main>:
  4215c0:	41 56                	push   %r14
  4215c2:	41 55                	push   %r13
  4215c4:	41 54                	push   %r12
  4215c6:	55                   	push   %rbp
  4215c7:	53                   	push   %rbx
  4215c8:	41 89 fc             	mov    %edi,%r12d
  4215cb:	48 89 f3             	mov    %rsi,%rbx
  4215ce:	be 61 22 42 00       	mov    $0x422261,%esi
  4215d3:	bf 0b 00 00 00       	mov    $0xb,%edi
  4215d8:	e8 f3 f8 fd ff       	callq  400ed0 <signal@plt>
  4215dd:	be 13 22 42 00       	mov    $0x422213,%esi
  4215e2:	bf 07 00 00 00       	mov    $0x7,%edi
  4215e7:	e8 e4 f8 fd ff       	callq  400ed0 <signal@plt>
  4215ec:	be af 22 42 00       	mov    $0x4222af,%esi
  4215f1:	bf 04 00 00 00       	mov    $0x4,%edi
  4215f6:	e8 d5 f8 fd ff       	callq  400ed0 <signal@plt>
  4215fb:	83 3d 26 3f 20 00 00 	cmpl   $0x0,0x203f26(%rip)        # 625528 <is_checker>
  421602:	74 20                	je     421624 <main+0x64>
  421604:	be fd 22 42 00       	mov    $0x4222fd,%esi
  421609:	bf 0e 00 00 00       	mov    $0xe,%edi
  42160e:	e8 bd f8 fd ff       	callq  400ed0 <signal@plt>
  421613:	bf 05 00 00 00       	mov    $0x5,%edi
  421618:	e8 d3 f8 fd ff       	callq  400ef0 <alarm@plt>
  42161d:	bd f2 35 42 00       	mov    $0x4235f2,%ebp
  421622:	eb 05                	jmp    421629 <main+0x69>
  421624:	bd ed 35 42 00       	mov    $0x4235ed,%ebp
  421629:	48 8b 05 b0 3e 20 00 	mov    0x203eb0(%rip),%rax        # 6254e0 <stdin@@GLIBC_2.2.5>
  421630:	48 89 05 d9 3e 20 00 	mov    %rax,0x203ed9(%rip)        # 625510 <infile>
  421637:	41 bd 00 00 00 00    	mov    $0x0,%r13d
  42163d:	41 be 00 00 00 00    	mov    $0x0,%r14d
  421643:	e9 b9 00 00 00       	jmpq   421701 <main+0x141>
  421648:	83 e8 61             	sub    $0x61,%eax
  42164b:	3c 10                	cmp    $0x10,%al
  42164d:	0f 87 93 00 00 00    	ja     4216e6 <main+0x126>
  421653:	0f b6 c0             	movzbl %al,%eax
  421656:	ff 24 c5 38 36 42 00 	jmpq   *0x423638(,%rax,8)
  42165d:	48 8b 3b             	mov    (%rbx),%rdi
  421660:	e8 8b fd ff ff       	callq  4213f0 <usage>
  421665:	be 05 3a 42 00       	mov    $0x423a05,%esi
  42166a:	48 8b 3d 77 3e 20 00 	mov    0x203e77(%rip),%rdi        # 6254e8 <optarg@@GLIBC_2.2.5>
  421671:	e8 aa f7 fd ff       	callq  400e20 <fopen@plt>
  421676:	48 89 05 93 3e 20 00 	mov    %rax,0x203e93(%rip)        # 625510 <infile>
  42167d:	48 85 c0             	test   %rax,%rax
  421680:	75 7f                	jne    421701 <main+0x141>
  421682:	48 8b 15 5f 3e 20 00 	mov    0x203e5f(%rip),%rdx        # 6254e8 <optarg@@GLIBC_2.2.5>
  421689:	be fa 35 42 00       	mov    $0x4235fa,%esi
  42168e:	48 8b 3d 5b 3e 20 00 	mov    0x203e5b(%rip),%rdi        # 6254f0 <stderr@@GLIBC_2.2.5>
  421695:	e8 b6 f8 fd ff       	callq  400f50 <fprintf@plt>
  42169a:	b8 01 00 00 00       	mov    $0x1,%eax
  42169f:	e9 d6 00 00 00       	jmpq   42177a <main+0x1ba>
  4216a4:	ba 10 00 00 00       	mov    $0x10,%edx
  4216a9:	be 00 00 00 00       	mov    $0x0,%esi
  4216ae:	48 8b 3d 33 3e 20 00 	mov    0x203e33(%rip),%rdi        # 6254e8 <optarg@@GLIBC_2.2.5>
  4216b5:	e8 b6 f8 fd ff       	callq  400f70 <strtoul@plt>
  4216ba:	41 89 c6             	mov    %eax,%r14d
  4216bd:	eb 42                	jmp    421701 <main+0x141>
  4216bf:	ba 0a 00 00 00       	mov    $0xa,%edx
  4216c4:	be 00 00 00 00       	mov    $0x0,%esi
  4216c9:	48 8b 3d 18 3e 20 00 	mov    0x203e18(%rip),%rdi        # 6254e8 <optarg@@GLIBC_2.2.5>
  4216d0:	e8 cb f7 fd ff       	callq  400ea0 <strtol@plt>
  4216d5:	41 89 c5             	mov    %eax,%r13d
  4216d8:	eb 27                	jmp    421701 <main+0x141>
  4216da:	c7 05 e4 3d 20 00 00 	movl   $0x0,0x203de4(%rip)        # 6254c8 <notify>
  4216e1:	00 00 00 
  4216e4:	eb 1b                	jmp    421701 <main+0x141>
  4216e6:	40 0f be f6          	movsbl %sil,%esi
  4216ea:	bf 17 36 42 00       	mov    $0x423617,%edi
  4216ef:	b8 00 00 00 00       	mov    $0x0,%eax
  4216f4:	e8 67 f6 fd ff       	callq  400d60 <printf@plt>
  4216f9:	48 8b 3b             	mov    (%rbx),%rdi
  4216fc:	e8 ef fc ff ff       	callq  4213f0 <usage>
  421701:	48 89 ea             	mov    %rbp,%rdx
  421704:	48 89 de             	mov    %rbx,%rsi
  421707:	44 89 e7             	mov    %r12d,%edi
  42170a:	e8 e1 f6 fd ff       	callq  400df0 <getopt@plt>
  42170f:	89 c6                	mov    %eax,%esi
  421711:	3c ff                	cmp    $0xff,%al
  421713:	0f 85 2f ff ff ff    	jne    421648 <main+0x88>
  421719:	be 00 00 00 00       	mov    $0x0,%esi
  42171e:	44 89 ef             	mov    %r13d,%edi
  421721:	e8 4a fd ff ff       	callq  421470 <initialize_target>
  421726:	83 3d fb 3d 20 00 00 	cmpl   $0x0,0x203dfb(%rip)        # 625528 <is_checker>
  42172d:	74 25                	je     421754 <main+0x194>
  42172f:	44 3b 35 ea 3d 20 00 	cmp    0x203dea(%rip),%r14d        # 625520 <authkey>
  421736:	74 1c                	je     421754 <main+0x194>
  421738:	44 89 f6             	mov    %r14d,%esi
  42173b:	bf 50 35 42 00       	mov    $0x423550,%edi
  421740:	b8 00 00 00 00       	mov    $0x0,%eax
  421745:	e8 16 f6 fd ff       	callq  400d60 <printf@plt>
  42174a:	b8 00 00 00 00       	mov    $0x0,%eax
  42174f:	e8 c7 07 00 00       	callq  421f1b <check_fail>
  421754:	8b 35 ca 3d 20 00    	mov    0x203dca(%rip),%esi        # 625524 <cookie>
  42175a:	bf 2a 36 42 00       	mov    $0x42362a,%edi
  42175f:	b8 00 00 00 00       	mov    $0x0,%eax
  421764:	e8 f7 f5 fd ff       	callq  400d60 <printf@plt>
  421769:	48 8b 3d 50 3d 20 00 	mov    0x203d50(%rip),%rdi        # 6254c0 <buf_offset>
  421770:	e8 57 0c 00 00       	callq  4223cc <stable_launch>
  421775:	b8 00 00 00 00       	mov    $0x0,%eax
  42177a:	5b                   	pop    %rbx
  42177b:	5d                   	pop    %rbp
  42177c:	41 5c                	pop    %r12
  42177e:	41 5d                	pop    %r13
  421780:	41 5e                	pop    %r14
  421782:	c3                   	retq   

0000000000421783 <scramble>:
  421783:	b8 00 00 00 00       	mov    $0x0,%eax
  421788:	eb 11                	jmp    42179b <scramble+0x18>
  42178a:	69 c8 2c 39 00 00    	imul   $0x392c,%eax,%ecx
  421790:	01 f9                	add    %edi,%ecx
  421792:	89 c2                	mov    %eax,%edx
  421794:	89 4c 94 d0          	mov    %ecx,-0x30(%rsp,%rdx,4)
  421798:	83 c0 01             	add    $0x1,%eax
  42179b:	83 f8 09             	cmp    $0x9,%eax
  42179e:	76 ea                	jbe    42178a <scramble+0x7>
  4217a0:	8b 44 24 f0          	mov    -0x10(%rsp),%eax
  4217a4:	69 c0 6d 7c 00 00    	imul   $0x7c6d,%eax,%eax
  4217aa:	89 44 24 f0          	mov    %eax,-0x10(%rsp)
  4217ae:	8b 44 24 ec          	mov    -0x14(%rsp),%eax
  4217b2:	69 c0 3c a2 00 00    	imul   $0xa23c,%eax,%eax
  4217b8:	89 44 24 ec          	mov    %eax,-0x14(%rsp)
  4217bc:	8b 44 24 ec          	mov    -0x14(%rsp),%eax
  4217c0:	69 c0 83 c9 00 00    	imul   $0xc983,%eax,%eax
  4217c6:	89 44 24 ec          	mov    %eax,-0x14(%rsp)
  4217ca:	8b 44 24 ec          	mov    -0x14(%rsp),%eax
  4217ce:	69 c0 63 50 00 00    	imul   $0x5063,%eax,%eax
  4217d4:	89 44 24 ec          	mov    %eax,-0x14(%rsp)
  4217d8:	8b 44 24 e8          	mov    -0x18(%rsp),%eax
  4217dc:	69 c0 29 1f 00 00    	imul   $0x1f29,%eax,%eax
  4217e2:	89 44 24 e8          	mov    %eax,-0x18(%rsp)
  4217e6:	8b 44 24 e0          	mov    -0x20(%rsp),%eax
  4217ea:	69 c0 65 2f 00 00    	imul   $0x2f65,%eax,%eax
  4217f0:	89 44 24 e0          	mov    %eax,-0x20(%rsp)
  4217f4:	8b 44 24 ec          	mov    -0x14(%rsp),%eax
  4217f8:	69 c0 0f 13 00 00    	imul   $0x130f,%eax,%eax
  4217fe:	89 44 24 ec          	mov    %eax,-0x14(%rsp)
  421802:	8b 44 24 e0          	mov    -0x20(%rsp),%eax
  421806:	69 c0 90 6f 00 00    	imul   $0x6f90,%eax,%eax
  42180c:	89 44 24 e0          	mov    %eax,-0x20(%rsp)
  421810:	8b 44 24 e4          	mov    -0x1c(%rsp),%eax
  421814:	69 c0 f6 29 00 00    	imul   $0x29f6,%eax,%eax
  42181a:	89 44 24 e4          	mov    %eax,-0x1c(%rsp)
  42181e:	8b 44 24 e4          	mov    -0x1c(%rsp),%eax
  421822:	69 c0 b5 42 00 00    	imul   $0x42b5,%eax,%eax
  421828:	89 44 24 e4          	mov    %eax,-0x1c(%rsp)
  42182c:	8b 44 24 d4          	mov    -0x2c(%rsp),%eax
  421830:	69 c0 c0 ad 00 00    	imul   $0xadc0,%eax,%eax
  421836:	89 44 24 d4          	mov    %eax,-0x2c(%rsp)
  42183a:	8b 44 24 ec          	mov    -0x14(%rsp),%eax
  42183e:	69 c0 58 6e 00 00    	imul   $0x6e58,%eax,%eax
  421844:	89 44 24 ec          	mov    %eax,-0x14(%rsp)
  421848:	8b 44 24 dc          	mov    -0x24(%rsp),%eax
  42184c:	69 c0 a3 8d 00 00    	imul   $0x8da3,%eax,%eax
  421852:	89 44 24 dc          	mov    %eax,-0x24(%rsp)
  421856:	8b 44 24 e4          	mov    -0x1c(%rsp),%eax
  42185a:	69 c0 6e d4 00 00    	imul   $0xd46e,%eax,%eax
  421860:	89 44 24 e4          	mov    %eax,-0x1c(%rsp)
  421864:	8b 44 24 d8          	mov    -0x28(%rsp),%eax
  421868:	69 c0 65 16 00 00    	imul   $0x1665,%eax,%eax
  42186e:	89 44 24 d8          	mov    %eax,-0x28(%rsp)
  421872:	8b 44 24 f4          	mov    -0xc(%rsp),%eax
  421876:	69 c0 eb 3c 00 00    	imul   $0x3ceb,%eax,%eax
  42187c:	89 44 24 f4          	mov    %eax,-0xc(%rsp)
  421880:	8b 44 24 e0          	mov    -0x20(%rsp),%eax
  421884:	69 c0 ba cf 00 00    	imul   $0xcfba,%eax,%eax
  42188a:	89 44 24 e0          	mov    %eax,-0x20(%rsp)
  42188e:	8b 44 24 ec          	mov    -0x14(%rsp),%eax
  421892:	69 c0 88 f4 00 00    	imul   $0xf488,%eax,%eax
  421898:	89 44 24 ec          	mov    %eax,-0x14(%rsp)
  42189c:	8b 44 24 d8          	mov    -0x28(%rsp),%eax
  4218a0:	69 c0 97 91 00 00    	imul   $0x9197,%eax,%eax
  4218a6:	89 44 24 d8          	mov    %eax,-0x28(%rsp)
  4218aa:	8b 44 24 d8          	mov    -0x28(%rsp),%eax
  4218ae:	69 c0 ea 63 00 00    	imul   $0x63ea,%eax,%eax
  4218b4:	89 44 24 d8          	mov    %eax,-0x28(%rsp)
  4218b8:	8b 44 24 d4          	mov    -0x2c(%rsp),%eax
  4218bc:	69 c0 a2 ab 00 00    	imul   $0xaba2,%eax,%eax
  4218c2:	89 44 24 d4          	mov    %eax,-0x2c(%rsp)
  4218c6:	8b 44 24 e8          	mov    -0x18(%rsp),%eax
  4218ca:	69 c0 37 05 00 00    	imul   $0x537,%eax,%eax
  4218d0:	89 44 24 e8          	mov    %eax,-0x18(%rsp)
  4218d4:	8b 44 24 f4          	mov    -0xc(%rsp),%eax
  4218d8:	69 c0 e6 be 00 00    	imul   $0xbee6,%eax,%eax
  4218de:	89 44 24 f4          	mov    %eax,-0xc(%rsp)
  4218e2:	8b 44 24 e8          	mov    -0x18(%rsp),%eax
  4218e6:	69 c0 40 ee 00 00    	imul   $0xee40,%eax,%eax
  4218ec:	89 44 24 e8          	mov    %eax,-0x18(%rsp)
  4218f0:	8b 44 24 e4          	mov    -0x1c(%rsp),%eax
  4218f4:	69 c0 ec 4e 00 00    	imul   $0x4eec,%eax,%eax
  4218fa:	89 44 24 e4          	mov    %eax,-0x1c(%rsp)
  4218fe:	8b 44 24 f4          	mov    -0xc(%rsp),%eax
  421902:	69 c0 49 e4 00 00    	imul   $0xe449,%eax,%eax
  421908:	89 44 24 f4          	mov    %eax,-0xc(%rsp)
  42190c:	8b 44 24 f4          	mov    -0xc(%rsp),%eax
  421910:	69 c0 52 ad 00 00    	imul   $0xad52,%eax,%eax
  421916:	89 44 24 f4          	mov    %eax,-0xc(%rsp)
  42191a:	8b 44 24 f4          	mov    -0xc(%rsp),%eax
  42191e:	69 c0 78 1e 00 00    	imul   $0x1e78,%eax,%eax
  421924:	89 44 24 f4          	mov    %eax,-0xc(%rsp)
  421928:	8b 44 24 d8          	mov    -0x28(%rsp),%eax
  42192c:	69 c0 f7 a6 00 00    	imul   $0xa6f7,%eax,%eax
  421932:	89 44 24 d8          	mov    %eax,-0x28(%rsp)
  421936:	8b 44 24 e0          	mov    -0x20(%rsp),%eax
  42193a:	69 c0 b5 3e 00 00    	imul   $0x3eb5,%eax,%eax
  421940:	89 44 24 e0          	mov    %eax,-0x20(%rsp)
  421944:	8b 44 24 e8          	mov    -0x18(%rsp),%eax
  421948:	69 c0 4e 2a 00 00    	imul   $0x2a4e,%eax,%eax
  42194e:	89 44 24 e8          	mov    %eax,-0x18(%rsp)
  421952:	8b 44 24 e0          	mov    -0x20(%rsp),%eax
  421956:	69 c0 2f 50 00 00    	imul   $0x502f,%eax,%eax
  42195c:	89 44 24 e0          	mov    %eax,-0x20(%rsp)
  421960:	8b 44 24 e0          	mov    -0x20(%rsp),%eax
  421964:	69 c0 c8 5a 00 00    	imul   $0x5ac8,%eax,%eax
  42196a:	89 44 24 e0          	mov    %eax,-0x20(%rsp)
  42196e:	8b 44 24 e0          	mov    -0x20(%rsp),%eax
  421972:	69 c0 45 93 00 00    	imul   $0x9345,%eax,%eax
  421978:	89 44 24 e0          	mov    %eax,-0x20(%rsp)
  42197c:	8b 44 24 f4          	mov    -0xc(%rsp),%eax
  421980:	69 c0 a4 89 00 00    	imul   $0x89a4,%eax,%eax
  421986:	89 44 24 f4          	mov    %eax,-0xc(%rsp)
  42198a:	8b 44 24 e8          	mov    -0x18(%rsp),%eax
  42198e:	69 c0 20 9d 00 00    	imul   $0x9d20,%eax,%eax
  421994:	89 44 24 e8          	mov    %eax,-0x18(%rsp)
  421998:	8b 44 24 ec          	mov    -0x14(%rsp),%eax
  42199c:	69 c0 7f 8a 00 00    	imul   $0x8a7f,%eax,%eax
  4219a2:	89 44 24 ec          	mov    %eax,-0x14(%rsp)
  4219a6:	8b 44 24 e4          	mov    -0x1c(%rsp),%eax
  4219aa:	69 c0 f8 f3 00 00    	imul   $0xf3f8,%eax,%eax
  4219b0:	89 44 24 e4          	mov    %eax,-0x1c(%rsp)
  4219b4:	8b 44 24 e0          	mov    -0x20(%rsp),%eax
  4219b8:	69 c0 1f 17 00 00    	imul   $0x171f,%eax,%eax
  4219be:	89 44 24 e0          	mov    %eax,-0x20(%rsp)
  4219c2:	8b 44 24 e4          	mov    -0x1c(%rsp),%eax
  4219c6:	69 c0 42 32 00 00    	imul   $0x3242,%eax,%eax
  4219cc:	89 44 24 e4          	mov    %eax,-0x1c(%rsp)
  4219d0:	8b 44 24 e4          	mov    -0x1c(%rsp),%eax
  4219d4:	69 c0 2d 13 00 00    	imul   $0x132d,%eax,%eax
  4219da:	89 44 24 e4          	mov    %eax,-0x1c(%rsp)
  4219de:	8b 44 24 d0          	mov    -0x30(%rsp),%eax
  4219e2:	69 c0 b8 62 00 00    	imul   $0x62b8,%eax,%eax
  4219e8:	89 44 24 d0          	mov    %eax,-0x30(%rsp)
  4219ec:	8b 44 24 dc          	mov    -0x24(%rsp),%eax
  4219f0:	69 c0 2d 69 00 00    	imul   $0x692d,%eax,%eax
  4219f6:	89 44 24 dc          	mov    %eax,-0x24(%rsp)
  4219fa:	8b 44 24 d8          	mov    -0x28(%rsp),%eax
  4219fe:	69 c0 75 fb 00 00    	imul   $0xfb75,%eax,%eax
  421a04:	89 44 24 d8          	mov    %eax,-0x28(%rsp)
  421a08:	8b 44 24 f0          	mov    -0x10(%rsp),%eax
  421a0c:	69 c0 17 74 00 00    	imul   $0x7417,%eax,%eax
  421a12:	89 44 24 f0          	mov    %eax,-0x10(%rsp)
  421a16:	8b 44 24 d8          	mov    -0x28(%rsp),%eax
  421a1a:	69 c0 80 cd 00 00    	imul   $0xcd80,%eax,%eax
  421a20:	89 44 24 d8          	mov    %eax,-0x28(%rsp)
  421a24:	8b 44 24 e0          	mov    -0x20(%rsp),%eax
  421a28:	69 c0 cb b5 00 00    	imul   $0xb5cb,%eax,%eax
  421a2e:	89 44 24 e0          	mov    %eax,-0x20(%rsp)
  421a32:	8b 44 24 ec          	mov    -0x14(%rsp),%eax
  421a36:	69 c0 6e 98 00 00    	imul   $0x986e,%eax,%eax
  421a3c:	89 44 24 ec          	mov    %eax,-0x14(%rsp)
  421a40:	8b 44 24 d8          	mov    -0x28(%rsp),%eax
  421a44:	69 c0 68 62 00 00    	imul   $0x6268,%eax,%eax
  421a4a:	89 44 24 d8          	mov    %eax,-0x28(%rsp)
  421a4e:	8b 44 24 f0          	mov    -0x10(%rsp),%eax
  421a52:	69 c0 f3 fc 00 00    	imul   $0xfcf3,%eax,%eax
  421a58:	89 44 24 f0          	mov    %eax,-0x10(%rsp)
  421a5c:	8b 44 24 d0          	mov    -0x30(%rsp),%eax
  421a60:	69 c0 e3 22 00 00    	imul   $0x22e3,%eax,%eax
  421a66:	89 44 24 d0          	mov    %eax,-0x30(%rsp)
  421a6a:	8b 44 24 f0          	mov    -0x10(%rsp),%eax
  421a6e:	69 c0 52 21 00 00    	imul   $0x2152,%eax,%eax
  421a74:	89 44 24 f0          	mov    %eax,-0x10(%rsp)
  421a78:	8b 44 24 f4          	mov    -0xc(%rsp),%eax
  421a7c:	69 c0 6b 3c 00 00    	imul   $0x3c6b,%eax,%eax
  421a82:	89 44 24 f4          	mov    %eax,-0xc(%rsp)
  421a86:	8b 44 24 e8          	mov    -0x18(%rsp),%eax
  421a8a:	69 c0 c8 f6 00 00    	imul   $0xf6c8,%eax,%eax
  421a90:	89 44 24 e8          	mov    %eax,-0x18(%rsp)
  421a94:	8b 44 24 f0          	mov    -0x10(%rsp),%eax
  421a98:	69 c0 83 f7 00 00    	imul   $0xf783,%eax,%eax
  421a9e:	89 44 24 f0          	mov    %eax,-0x10(%rsp)
  421aa2:	8b 44 24 ec          	mov    -0x14(%rsp),%eax
  421aa6:	69 c0 96 b9 00 00    	imul   $0xb996,%eax,%eax
  421aac:	89 44 24 ec          	mov    %eax,-0x14(%rsp)
  421ab0:	8b 44 24 f0          	mov    -0x10(%rsp),%eax
  421ab4:	69 c0 95 3f 00 00    	imul   $0x3f95,%eax,%eax
  421aba:	89 44 24 f0          	mov    %eax,-0x10(%rsp)
  421abe:	8b 44 24 d0          	mov    -0x30(%rsp),%eax
  421ac2:	69 c0 31 cb 00 00    	imul   $0xcb31,%eax,%eax
  421ac8:	89 44 24 d0          	mov    %eax,-0x30(%rsp)
  421acc:	8b 44 24 d0          	mov    -0x30(%rsp),%eax
  421ad0:	69 c0 7f 9d 00 00    	imul   $0x9d7f,%eax,%eax
  421ad6:	89 44 24 d0          	mov    %eax,-0x30(%rsp)
  421ada:	8b 44 24 f4          	mov    -0xc(%rsp),%eax
  421ade:	69 c0 e6 b8 00 00    	imul   $0xb8e6,%eax,%eax
  421ae4:	89 44 24 f4          	mov    %eax,-0xc(%rsp)
  421ae8:	8b 44 24 dc          	mov    -0x24(%rsp),%eax
  421aec:	69 c0 d1 00 00 00    	imul   $0xd1,%eax,%eax
  421af2:	89 44 24 dc          	mov    %eax,-0x24(%rsp)
  421af6:	8b 44 24 e0          	mov    -0x20(%rsp),%eax
  421afa:	69 c0 fd af 00 00    	imul   $0xaffd,%eax,%eax
  421b00:	89 44 24 e0          	mov    %eax,-0x20(%rsp)
  421b04:	8b 44 24 f4          	mov    -0xc(%rsp),%eax
  421b08:	69 c0 17 a4 00 00    	imul   $0xa417,%eax,%eax
  421b0e:	89 44 24 f4          	mov    %eax,-0xc(%rsp)
  421b12:	8b 44 24 f4          	mov    -0xc(%rsp),%eax
  421b16:	69 c0 2f c7 00 00    	imul   $0xc72f,%eax,%eax
  421b1c:	89 44 24 f4          	mov    %eax,-0xc(%rsp)
  421b20:	8b 44 24 e4          	mov    -0x1c(%rsp),%eax
  421b24:	69 c0 1f 74 00 00    	imul   $0x741f,%eax,%eax
  421b2a:	89 44 24 e4          	mov    %eax,-0x1c(%rsp)
  421b2e:	8b 44 24 ec          	mov    -0x14(%rsp),%eax
  421b32:	69 c0 8b f2 00 00    	imul   $0xf28b,%eax,%eax
  421b38:	89 44 24 ec          	mov    %eax,-0x14(%rsp)
  421b3c:	8b 44 24 d4          	mov    -0x2c(%rsp),%eax
  421b40:	69 c0 37 5e 00 00    	imul   $0x5e37,%eax,%eax
  421b46:	89 44 24 d4          	mov    %eax,-0x2c(%rsp)
  421b4a:	8b 44 24 e8          	mov    -0x18(%rsp),%eax
  421b4e:	69 c0 65 44 00 00    	imul   $0x4465,%eax,%eax
  421b54:	89 44 24 e8          	mov    %eax,-0x18(%rsp)
  421b58:	8b 44 24 f4          	mov    -0xc(%rsp),%eax
  421b5c:	69 c0 28 29 00 00    	imul   $0x2928,%eax,%eax
  421b62:	89 44 24 f4          	mov    %eax,-0xc(%rsp)
  421b66:	8b 44 24 e8          	mov    -0x18(%rsp),%eax
  421b6a:	69 c0 2d ee 00 00    	imul   $0xee2d,%eax,%eax
  421b70:	89 44 24 e8          	mov    %eax,-0x18(%rsp)
  421b74:	8b 44 24 f4          	mov    -0xc(%rsp),%eax
  421b78:	69 c0 37 64 00 00    	imul   $0x6437,%eax,%eax
  421b7e:	89 44 24 f4          	mov    %eax,-0xc(%rsp)
  421b82:	8b 44 24 dc          	mov    -0x24(%rsp),%eax
  421b86:	69 c0 5d 2b 00 00    	imul   $0x2b5d,%eax,%eax
  421b8c:	89 44 24 dc          	mov    %eax,-0x24(%rsp)
  421b90:	8b 44 24 d8          	mov    -0x28(%rsp),%eax
  421b94:	69 c0 11 c4 00 00    	imul   $0xc411,%eax,%eax
  421b9a:	89 44 24 d8          	mov    %eax,-0x28(%rsp)
  421b9e:	8b 44 24 d4          	mov    -0x2c(%rsp),%eax
  421ba2:	69 c0 8f 4c 00 00    	imul   $0x4c8f,%eax,%eax
  421ba8:	89 44 24 d4          	mov    %eax,-0x2c(%rsp)
  421bac:	8b 44 24 d0          	mov    -0x30(%rsp),%eax
  421bb0:	69 c0 34 bd 00 00    	imul   $0xbd34,%eax,%eax
  421bb6:	89 44 24 d0          	mov    %eax,-0x30(%rsp)
  421bba:	8b 44 24 dc          	mov    -0x24(%rsp),%eax
  421bbe:	69 c0 28 73 00 00    	imul   $0x7328,%eax,%eax
  421bc4:	89 44 24 dc          	mov    %eax,-0x24(%rsp)
  421bc8:	8b 44 24 dc          	mov    -0x24(%rsp),%eax
  421bcc:	69 c0 dd 8b 00 00    	imul   $0x8bdd,%eax,%eax
  421bd2:	89 44 24 dc          	mov    %eax,-0x24(%rsp)
  421bd6:	8b 44 24 d8          	mov    -0x28(%rsp),%eax
  421bda:	69 c0 a1 74 00 00    	imul   $0x74a1,%eax,%eax
  421be0:	89 44 24 d8          	mov    %eax,-0x28(%rsp)
  421be4:	8b 44 24 dc          	mov    -0x24(%rsp),%eax
  421be8:	69 c0 90 6b 00 00    	imul   $0x6b90,%eax,%eax
  421bee:	89 44 24 dc          	mov    %eax,-0x24(%rsp)
  421bf2:	8b 44 24 e8          	mov    -0x18(%rsp),%eax
  421bf6:	69 c0 73 36 00 00    	imul   $0x3673,%eax,%eax
  421bfc:	89 44 24 e8          	mov    %eax,-0x18(%rsp)
  421c00:	8b 44 24 d0          	mov    -0x30(%rsp),%eax
  421c04:	69 c0 f4 ff 00 00    	imul   $0xfff4,%eax,%eax
  421c0a:	89 44 24 d0          	mov    %eax,-0x30(%rsp)
  421c0e:	8b 44 24 ec          	mov    -0x14(%rsp),%eax
  421c12:	69 c0 b3 76 00 00    	imul   $0x76b3,%eax,%eax
  421c18:	89 44 24 ec          	mov    %eax,-0x14(%rsp)
  421c1c:	8b 44 24 d0          	mov    -0x30(%rsp),%eax
  421c20:	69 c0 db 3c 00 00    	imul   $0x3cdb,%eax,%eax
  421c26:	89 44 24 d0          	mov    %eax,-0x30(%rsp)
  421c2a:	8b 44 24 e0          	mov    -0x20(%rsp),%eax
  421c2e:	69 c0 cd f8 00 00    	imul   $0xf8cd,%eax,%eax
  421c34:	89 44 24 e0          	mov    %eax,-0x20(%rsp)
  421c38:	8b 44 24 f0          	mov    -0x10(%rsp),%eax
  421c3c:	69 c0 46 f6 00 00    	imul   $0xf646,%eax,%eax
  421c42:	89 44 24 f0          	mov    %eax,-0x10(%rsp)
  421c46:	8b 44 24 d4          	mov    -0x2c(%rsp),%eax
  421c4a:	69 c0 b0 86 00 00    	imul   $0x86b0,%eax,%eax
  421c50:	89 44 24 d4          	mov    %eax,-0x2c(%rsp)
  421c54:	8b 44 24 ec          	mov    -0x14(%rsp),%eax
  421c58:	69 c0 bd 8e 00 00    	imul   $0x8ebd,%eax,%eax
  421c5e:	89 44 24 ec          	mov    %eax,-0x14(%rsp)
  421c62:	8b 44 24 ec          	mov    -0x14(%rsp),%eax
  421c66:	69 c0 4a fe 00 00    	imul   $0xfe4a,%eax,%eax
  421c6c:	89 44 24 ec          	mov    %eax,-0x14(%rsp)
  421c70:	8b 44 24 d8          	mov    -0x28(%rsp),%eax
  421c74:	69 c0 9b a8 00 00    	imul   $0xa89b,%eax,%eax
  421c7a:	89 44 24 d8          	mov    %eax,-0x28(%rsp)
  421c7e:	8b 44 24 e4          	mov    -0x1c(%rsp),%eax
  421c82:	69 c0 60 b4 00 00    	imul   $0xb460,%eax,%eax
  421c88:	89 44 24 e4          	mov    %eax,-0x1c(%rsp)
  421c8c:	8b 44 24 d0          	mov    -0x30(%rsp),%eax
  421c90:	69 c0 50 50 00 00    	imul   $0x5050,%eax,%eax
  421c96:	89 44 24 d0          	mov    %eax,-0x30(%rsp)
  421c9a:	8b 44 24 f4          	mov    -0xc(%rsp),%eax
  421c9e:	69 c0 d5 23 00 00    	imul   $0x23d5,%eax,%eax
  421ca4:	89 44 24 f4          	mov    %eax,-0xc(%rsp)
  421ca8:	8b 44 24 f0          	mov    -0x10(%rsp),%eax
  421cac:	69 c0 ad 4a 00 00    	imul   $0x4aad,%eax,%eax
  421cb2:	89 44 24 f0          	mov    %eax,-0x10(%rsp)
  421cb6:	8b 44 24 e4          	mov    -0x1c(%rsp),%eax
  421cba:	69 c0 21 0c 00 00    	imul   $0xc21,%eax,%eax
  421cc0:	89 44 24 e4          	mov    %eax,-0x1c(%rsp)
  421cc4:	8b 44 24 e0          	mov    -0x20(%rsp),%eax
  421cc8:	69 c0 47 d4 00 00    	imul   $0xd447,%eax,%eax
  421cce:	89 44 24 e0          	mov    %eax,-0x20(%rsp)
  421cd2:	8b 44 24 d4          	mov    -0x2c(%rsp),%eax
  421cd6:	69 c0 ed 95 00 00    	imul   $0x95ed,%eax,%eax
  421cdc:	89 44 24 d4          	mov    %eax,-0x2c(%rsp)
  421ce0:	8b 44 24 f0          	mov    -0x10(%rsp),%eax
  421ce4:	69 c0 92 6b 00 00    	imul   $0x6b92,%eax,%eax
  421cea:	89 44 24 f0          	mov    %eax,-0x10(%rsp)
  421cee:	ba 00 00 00 00       	mov    $0x0,%edx
  421cf3:	b8 00 00 00 00       	mov    $0x0,%eax
  421cf8:	eb 0b                	jmp    421d05 <scramble+0x582>
  421cfa:	89 d1                	mov    %edx,%ecx
  421cfc:	8b 4c 8c d0          	mov    -0x30(%rsp,%rcx,4),%ecx
  421d00:	01 c8                	add    %ecx,%eax
  421d02:	83 c2 01             	add    $0x1,%edx
  421d05:	83 fa 09             	cmp    $0x9,%edx
  421d08:	76 f0                	jbe    421cfa <scramble+0x577>
  421d0a:	f3 c3                	repz retq 

0000000000421d0c <getbuf>:
  421d0c:	48 83 ec 18          	sub    $0x18,%rsp
  421d10:	48 89 e7             	mov    %rsp,%rdi
  421d13:	e8 32 02 00 00       	callq  421f4a <Gets>
  421d18:	b8 01 00 00 00       	mov    $0x1,%eax
  421d1d:	48 83 c4 18          	add    $0x18,%rsp
  421d21:	c3                   	retq   

0000000000421d22 <touch1>:
  421d22:	48 83 ec 08          	sub    $0x8,%rsp
  421d26:	c7 05 ec 37 20 00 01 	movl   $0x1,0x2037ec(%rip)        # 62551c <vlevel>
  421d2d:	00 00 00 
  421d30:	bf 57 38 42 00       	mov    $0x423857,%edi
  421d35:	e8 76 f0 fd ff       	callq  400db0 <puts@plt>
  421d3a:	bf 01 00 00 00       	mov    $0x1,%edi
  421d3f:	e8 f5 03 00 00       	callq  422139 <validate>
  421d44:	bf 00 00 00 00       	mov    $0x0,%edi
  421d49:	e8 82 f0 fd ff       	callq  400dd0 <exit@plt>

0000000000421d4e <touch2>:
  421d4e:	48 83 ec 08          	sub    $0x8,%rsp
  421d52:	89 fe                	mov    %edi,%esi
  421d54:	c7 05 be 37 20 00 02 	movl   $0x2,0x2037be(%rip)        # 62551c <vlevel>
  421d5b:	00 00 00 
  421d5e:	3b 3d c0 37 20 00    	cmp    0x2037c0(%rip),%edi        # 625524 <cookie>
  421d64:	75 1b                	jne    421d81 <touch2+0x33>
  421d66:	bf 80 38 42 00       	mov    $0x423880,%edi
  421d6b:	b8 00 00 00 00       	mov    $0x0,%eax
  421d70:	e8 eb ef fd ff       	callq  400d60 <printf@plt>
  421d75:	bf 02 00 00 00       	mov    $0x2,%edi
  421d7a:	e8 ba 03 00 00       	callq  422139 <validate>
  421d7f:	eb 19                	jmp    421d9a <touch2+0x4c>
  421d81:	bf a8 38 42 00       	mov    $0x4238a8,%edi
  421d86:	b8 00 00 00 00       	mov    $0x0,%eax
  421d8b:	e8 d0 ef fd ff       	callq  400d60 <printf@plt>
  421d90:	bf 02 00 00 00       	mov    $0x2,%edi
  421d95:	e8 51 04 00 00       	callq  4221eb <fail>
  421d9a:	bf 00 00 00 00       	mov    $0x0,%edi
  421d9f:	e8 2c f0 fd ff       	callq  400dd0 <exit@plt>

0000000000421da4 <hexmatch>:
  421da4:	41 54                	push   %r12
  421da6:	55                   	push   %rbp
  421da7:	53                   	push   %rbx
  421da8:	48 83 ec 70          	sub    $0x70,%rsp
  421dac:	41 89 fc             	mov    %edi,%r12d
  421daf:	48 89 f5             	mov    %rsi,%rbp
  421db2:	e8 89 f1 fd ff       	callq  400f40 <random@plt>
  421db7:	48 89 c1             	mov    %rax,%rcx
  421dba:	48 ba 0b d7 a3 70 3d 	movabs $0xa3d70a3d70a3d70b,%rdx
  421dc1:	0a d7 a3 
  421dc4:	48 f7 ea             	imul   %rdx
  421dc7:	48 8d 04 0a          	lea    (%rdx,%rcx,1),%rax
  421dcb:	48 c1 f8 06          	sar    $0x6,%rax
  421dcf:	48 89 ce             	mov    %rcx,%rsi
  421dd2:	48 c1 fe 3f          	sar    $0x3f,%rsi
  421dd6:	48 29 f0             	sub    %rsi,%rax
  421dd9:	48 8d 04 80          	lea    (%rax,%rax,4),%rax
  421ddd:	48 8d 04 80          	lea    (%rax,%rax,4),%rax
  421de1:	48 c1 e0 02          	shl    $0x2,%rax
  421de5:	48 29 c1             	sub    %rax,%rcx
  421de8:	48 8d 1c 0c          	lea    (%rsp,%rcx,1),%rbx
  421dec:	44 89 e2             	mov    %r12d,%edx
  421def:	be 74 38 42 00       	mov    $0x423874,%esi
  421df4:	48 89 df             	mov    %rbx,%rdi
  421df7:	b8 00 00 00 00       	mov    $0x0,%eax
  421dfc:	e8 7f f0 fd ff       	callq  400e80 <sprintf@plt>
  421e01:	ba 09 00 00 00       	mov    $0x9,%edx
  421e06:	48 89 de             	mov    %rbx,%rsi
  421e09:	48 89 ef             	mov    %rbp,%rdi
  421e0c:	e8 ff ef fd ff       	callq  400e10 <strncmp@plt>
  421e11:	85 c0                	test   %eax,%eax
  421e13:	0f 94 c0             	sete   %al
  421e16:	0f b6 c0             	movzbl %al,%eax
  421e19:	48 83 c4 70          	add    $0x70,%rsp
  421e1d:	5b                   	pop    %rbx
  421e1e:	5d                   	pop    %rbp
  421e1f:	41 5c                	pop    %r12
  421e21:	c3                   	retq   

0000000000421e22 <touch3>:
  421e22:	53                   	push   %rbx
  421e23:	48 89 fb             	mov    %rdi,%rbx
  421e26:	c7 05 ec 36 20 00 03 	movl   $0x3,0x2036ec(%rip)        # 62551c <vlevel>
  421e2d:	00 00 00 
  421e30:	48 89 fe             	mov    %rdi,%rsi
  421e33:	8b 3d eb 36 20 00    	mov    0x2036eb(%rip),%edi        # 625524 <cookie>
  421e39:	e8 66 ff ff ff       	callq  421da4 <hexmatch>
  421e3e:	85 c0                	test   %eax,%eax
  421e40:	74 1e                	je     421e60 <touch3+0x3e>
  421e42:	48 89 de             	mov    %rbx,%rsi
  421e45:	bf d0 38 42 00       	mov    $0x4238d0,%edi
  421e4a:	b8 00 00 00 00       	mov    $0x0,%eax
  421e4f:	e8 0c ef fd ff       	callq  400d60 <printf@plt>
  421e54:	bf 03 00 00 00       	mov    $0x3,%edi
  421e59:	e8 db 02 00 00       	callq  422139 <validate>
  421e5e:	eb 1c                	jmp    421e7c <touch3+0x5a>
  421e60:	48 89 de             	mov    %rbx,%rsi
  421e63:	bf f8 38 42 00       	mov    $0x4238f8,%edi
  421e68:	b8 00 00 00 00       	mov    $0x0,%eax
  421e6d:	e8 ee ee fd ff       	callq  400d60 <printf@plt>
  421e72:	bf 03 00 00 00       	mov    $0x3,%edi
  421e77:	e8 6f 03 00 00       	callq  4221eb <fail>
  421e7c:	bf 00 00 00 00       	mov    $0x0,%edi
  421e81:	e8 4a ef fd ff       	callq  400dd0 <exit@plt>

0000000000421e86 <test>:
  421e86:	48 83 ec 08          	sub    $0x8,%rsp
  421e8a:	b8 00 00 00 00       	mov    $0x0,%eax
  421e8f:	e8 78 fe ff ff       	callq  421d0c <getbuf>
  421e94:	89 c6                	mov    %eax,%esi
  421e96:	bf 20 39 42 00       	mov    $0x423920,%edi
  421e9b:	b8 00 00 00 00       	mov    $0x0,%eax
  421ea0:	e8 bb ee fd ff       	callq  400d60 <printf@plt>
  421ea5:	48 83 c4 08          	add    $0x8,%rsp
  421ea9:	c3                   	retq   
  421eaa:	66 0f 1f 44 00 00    	nopw   0x0(%rax,%rax,1)

0000000000421eb0 <save_char>:
  421eb0:	8b 05 8e 42 20 00    	mov    0x20428e(%rip),%eax        # 626144 <gets_cnt>
  421eb6:	3d ff 03 00 00       	cmp    $0x3ff,%eax
  421ebb:	7f 49                	jg     421f06 <save_char+0x56>
  421ebd:	8d 14 40             	lea    (%rax,%rax,2),%edx
  421ec0:	89 f9                	mov    %edi,%ecx
  421ec2:	c0 e9 04             	shr    $0x4,%cl
  421ec5:	83 e1 0f             	and    $0xf,%ecx
  421ec8:	0f b6 b1 40 3c 42 00 	movzbl 0x423c40(%rcx),%esi
  421ecf:	48 63 ca             	movslq %edx,%rcx
  421ed2:	40 88 b1 40 55 62 00 	mov    %sil,0x625540(%rcx)
  421ed9:	8d 4a 01             	lea    0x1(%rdx),%ecx
  421edc:	83 e7 0f             	and    $0xf,%edi
  421edf:	0f b6 b7 40 3c 42 00 	movzbl 0x423c40(%rdi),%esi
  421ee6:	48 63 c9             	movslq %ecx,%rcx
  421ee9:	40 88 b1 40 55 62 00 	mov    %sil,0x625540(%rcx)
  421ef0:	83 c2 02             	add    $0x2,%edx
  421ef3:	48 63 d2             	movslq %edx,%rdx
  421ef6:	c6 82 40 55 62 00 20 	movb   $0x20,0x625540(%rdx)
  421efd:	83 c0 01             	add    $0x1,%eax
  421f00:	89 05 3e 42 20 00    	mov    %eax,0x20423e(%rip)        # 626144 <gets_cnt>
  421f06:	f3 c3                	repz retq 

0000000000421f08 <save_term>:
  421f08:	8b 05 36 42 20 00    	mov    0x204236(%rip),%eax        # 626144 <gets_cnt>
  421f0e:	8d 04 40             	lea    (%rax,%rax,2),%eax
  421f11:	48 98                	cltq   
  421f13:	c6 80 40 55 62 00 00 	movb   $0x0,0x625540(%rax)
  421f1a:	c3                   	retq   

0000000000421f1b <check_fail>:
  421f1b:	48 83 ec 08          	sub    $0x8,%rsp
  421f1f:	0f be 35 22 42 20 00 	movsbl 0x204222(%rip),%esi        # 626148 <target_prefix>
  421f26:	b9 40 55 62 00       	mov    $0x625540,%ecx
  421f2b:	8b 15 e7 35 20 00    	mov    0x2035e7(%rip),%edx        # 625518 <check_level>
  421f31:	bf 43 39 42 00       	mov    $0x423943,%edi
  421f36:	b8 00 00 00 00       	mov    $0x0,%eax
  421f3b:	e8 20 ee fd ff       	callq  400d60 <printf@plt>
  421f40:	bf 01 00 00 00       	mov    $0x1,%edi
  421f45:	e8 86 ee fd ff       	callq  400dd0 <exit@plt>

0000000000421f4a <Gets>:
  421f4a:	41 54                	push   %r12
  421f4c:	55                   	push   %rbp
  421f4d:	53                   	push   %rbx
  421f4e:	49 89 fc             	mov    %rdi,%r12
  421f51:	c7 05 e9 41 20 00 00 	movl   $0x0,0x2041e9(%rip)        # 626144 <gets_cnt>
  421f58:	00 00 00 
  421f5b:	48 89 fb             	mov    %rdi,%rbx
  421f5e:	eb 11                	jmp    421f71 <Gets+0x27>
  421f60:	48 8d 6b 01          	lea    0x1(%rbx),%rbp
  421f64:	88 03                	mov    %al,(%rbx)
  421f66:	0f b6 f8             	movzbl %al,%edi
  421f69:	e8 42 ff ff ff       	callq  421eb0 <save_char>
  421f6e:	48 89 eb             	mov    %rbp,%rbx
  421f71:	48 8b 3d 98 35 20 00 	mov    0x203598(%rip),%rdi        # 625510 <infile>
  421f78:	e8 e3 ee fd ff       	callq  400e60 <_IO_getc@plt>
  421f7d:	83 f8 ff             	cmp    $0xffffffff,%eax
  421f80:	74 05                	je     421f87 <Gets+0x3d>
  421f82:	83 f8 0a             	cmp    $0xa,%eax
  421f85:	75 d9                	jne    421f60 <Gets+0x16>
  421f87:	c6 03 00             	movb   $0x0,(%rbx)
  421f8a:	b8 00 00 00 00       	mov    $0x0,%eax
  421f8f:	e8 74 ff ff ff       	callq  421f08 <save_term>
  421f94:	4c 89 e0             	mov    %r12,%rax
  421f97:	5b                   	pop    %rbx
  421f98:	5d                   	pop    %rbp
  421f99:	41 5c                	pop    %r12
  421f9b:	c3                   	retq   

0000000000421f9c <notify_server>:
  421f9c:	83 3d 85 35 20 00 00 	cmpl   $0x0,0x203585(%rip)        # 625528 <is_checker>
  421fa3:	0f 85 8e 01 00 00    	jne    422137 <notify_server+0x19b>
  421fa9:	53                   	push   %rbx
  421faa:	48 81 ec 10 40 00 00 	sub    $0x4010,%rsp
  421fb1:	89 fb                	mov    %edi,%ebx
  421fb3:	8b 05 8b 41 20 00    	mov    0x20418b(%rip),%eax        # 626144 <gets_cnt>
  421fb9:	83 c0 64             	add    $0x64,%eax
  421fbc:	3d 00 20 00 00       	cmp    $0x2000,%eax
  421fc1:	7e 19                	jle    421fdc <notify_server+0x40>
  421fc3:	bf 78 3a 42 00       	mov    $0x423a78,%edi
  421fc8:	b8 00 00 00 00       	mov    $0x0,%eax
  421fcd:	e8 8e ed fd ff       	callq  400d60 <printf@plt>
  421fd2:	bf 01 00 00 00       	mov    $0x1,%edi
  421fd7:	e8 f4 ed fd ff       	callq  400dd0 <exit@plt>
  421fdc:	44 0f be 0d 64 41 20 	movsbl 0x204164(%rip),%r9d        # 626148 <target_prefix>
  421fe3:	00 
  421fe4:	83 3d dd 34 20 00 00 	cmpl   $0x0,0x2034dd(%rip)        # 6254c8 <notify>
  421feb:	74 09                	je     421ff6 <notify_server+0x5a>
  421fed:	44 8b 05 2c 35 20 00 	mov    0x20352c(%rip),%r8d        # 625520 <authkey>
  421ff4:	eb 06                	jmp    421ffc <notify_server+0x60>
  421ff6:	41 b8 ff ff ff ff    	mov    $0xffffffff,%r8d
  421ffc:	85 db                	test   %ebx,%ebx
  421ffe:	74 07                	je     422007 <notify_server+0x6b>
  422000:	b9 59 39 42 00       	mov    $0x423959,%ecx
  422005:	eb 05                	jmp    42200c <notify_server+0x70>
  422007:	b9 5e 39 42 00       	mov    $0x42395e,%ecx
  42200c:	48 c7 44 24 08 40 55 	movq   $0x625540,0x8(%rsp)
  422013:	62 00 
  422015:	89 34 24             	mov    %esi,(%rsp)
  422018:	8b 15 6a 31 20 00    	mov    0x20316a(%rip),%edx        # 625188 <target_id>
  42201e:	be 63 39 42 00       	mov    $0x423963,%esi
  422023:	48 8d bc 24 10 20 00 	lea    0x2010(%rsp),%rdi
  42202a:	00 
  42202b:	b8 00 00 00 00       	mov    $0x0,%eax
  422030:	e8 4b ee fd ff       	callq  400e80 <sprintf@plt>
  422035:	83 3d 8c 34 20 00 00 	cmpl   $0x0,0x20348c(%rip)        # 6254c8 <notify>
  42203c:	74 78                	je     4220b6 <notify_server+0x11a>
  42203e:	4c 8d 4c 24 10       	lea    0x10(%rsp),%r9
  422043:	41 b8 00 00 00 00    	mov    $0x0,%r8d
  422049:	48 8d 8c 24 10 20 00 	lea    0x2010(%rsp),%rcx
  422050:	00 
  422051:	48 8b 15 38 31 20 00 	mov    0x203138(%rip),%rdx        # 625190 <lab>
  422058:	48 8b 35 39 31 20 00 	mov    0x203139(%rip),%rsi        # 625198 <course>
  42205f:	48 8b 3d 1a 31 20 00 	mov    0x20311a(%rip),%rdi        # 625180 <user_id>
  422066:	e8 b3 0f 00 00       	callq  42301e <driver_post>
  42206b:	85 c0                	test   %eax,%eax
  42206d:	79 1e                	jns    42208d <notify_server+0xf1>
  42206f:	48 8d 74 24 10       	lea    0x10(%rsp),%rsi
  422074:	bf 7f 39 42 00       	mov    $0x42397f,%edi
  422079:	b8 00 00 00 00       	mov    $0x0,%eax
  42207e:	e8 dd ec fd ff       	callq  400d60 <printf@plt>
  422083:	bf 01 00 00 00       	mov    $0x1,%edi
  422088:	e8 43 ed fd ff       	callq  400dd0 <exit@plt>
  42208d:	85 db                	test   %ebx,%ebx
  42208f:	74 19                	je     4220aa <notify_server+0x10e>
  422091:	bf a8 3a 42 00       	mov    $0x423aa8,%edi
  422096:	e8 15 ed fd ff       	callq  400db0 <puts@plt>
  42209b:	bf 8b 39 42 00       	mov    $0x42398b,%edi
  4220a0:	e8 0b ed fd ff       	callq  400db0 <puts@plt>
  4220a5:	e9 85 00 00 00       	jmpq   42212f <notify_server+0x193>
  4220aa:	bf 95 39 42 00       	mov    $0x423995,%edi
  4220af:	e8 fc ec fd ff       	callq  400db0 <puts@plt>
  4220b4:	eb 79                	jmp    42212f <notify_server+0x193>
  4220b6:	85 db                	test   %ebx,%ebx
  4220b8:	74 08                	je     4220c2 <notify_server+0x126>
  4220ba:	be 59 39 42 00       	mov    $0x423959,%esi
  4220bf:	90                   	nop
  4220c0:	eb 05                	jmp    4220c7 <notify_server+0x12b>
  4220c2:	be 5e 39 42 00       	mov    $0x42395e,%esi
  4220c7:	bf e0 3a 42 00       	mov    $0x423ae0,%edi
  4220cc:	b8 00 00 00 00       	mov    $0x0,%eax
  4220d1:	e8 8a ec fd ff       	callq  400d60 <printf@plt>
  4220d6:	48 8b 35 a3 30 20 00 	mov    0x2030a3(%rip),%rsi        # 625180 <user_id>
  4220dd:	bf 9c 39 42 00       	mov    $0x42399c,%edi
  4220e2:	b8 00 00 00 00       	mov    $0x0,%eax
  4220e7:	e8 74 ec fd ff       	callq  400d60 <printf@plt>
  4220ec:	48 8b 35 a5 30 20 00 	mov    0x2030a5(%rip),%rsi        # 625198 <course>
  4220f3:	bf a9 39 42 00       	mov    $0x4239a9,%edi
  4220f8:	b8 00 00 00 00       	mov    $0x0,%eax
  4220fd:	e8 5e ec fd ff       	callq  400d60 <printf@plt>
  422102:	48 8b 35 87 30 20 00 	mov    0x203087(%rip),%rsi        # 625190 <lab>
  422109:	bf b5 39 42 00       	mov    $0x4239b5,%edi
  42210e:	b8 00 00 00 00       	mov    $0x0,%eax
  422113:	e8 48 ec fd ff       	callq  400d60 <printf@plt>
  422118:	48 8d b4 24 10 20 00 	lea    0x2010(%rsp),%rsi
  42211f:	00 
  422120:	bf be 39 42 00       	mov    $0x4239be,%edi
  422125:	b8 00 00 00 00       	mov    $0x0,%eax
  42212a:	e8 31 ec fd ff       	callq  400d60 <printf@plt>
  42212f:	48 81 c4 10 40 00 00 	add    $0x4010,%rsp
  422136:	5b                   	pop    %rbx
  422137:	f3 c3                	repz retq 

0000000000422139 <validate>:
  422139:	53                   	push   %rbx
  42213a:	89 fb                	mov    %edi,%ebx
  42213c:	83 3d e5 33 20 00 00 	cmpl   $0x0,0x2033e5(%rip)        # 625528 <is_checker>
  422143:	74 60                	je     4221a5 <validate+0x6c>
  422145:	39 3d d1 33 20 00    	cmp    %edi,0x2033d1(%rip)        # 62551c <vlevel>
  42214b:	74 14                	je     422161 <validate+0x28>
  42214d:	bf ca 39 42 00       	mov    $0x4239ca,%edi
  422152:	e8 59 ec fd ff       	callq  400db0 <puts@plt>
  422157:	b8 00 00 00 00       	mov    $0x0,%eax
  42215c:	e8 ba fd ff ff       	callq  421f1b <check_fail>
  422161:	8b 35 b1 33 20 00    	mov    0x2033b1(%rip),%esi        # 625518 <check_level>
  422167:	39 fe                	cmp    %edi,%esi
  422169:	74 1b                	je     422186 <validate+0x4d>
  42216b:	89 fa                	mov    %edi,%edx
  42216d:	bf 08 3b 42 00       	mov    $0x423b08,%edi
  422172:	b8 00 00 00 00       	mov    $0x0,%eax
  422177:	e8 e4 eb fd ff       	callq  400d60 <printf@plt>
  42217c:	b8 00 00 00 00       	mov    $0x0,%eax
  422181:	e8 95 fd ff ff       	callq  421f1b <check_fail>
  422186:	0f be 35 bb 3f 20 00 	movsbl 0x203fbb(%rip),%esi        # 626148 <target_prefix>
  42218d:	b9 40 55 62 00       	mov    $0x625540,%ecx
  422192:	89 fa                	mov    %edi,%edx
  422194:	bf e8 39 42 00       	mov    $0x4239e8,%edi
  422199:	b8 00 00 00 00       	mov    $0x0,%eax
  42219e:	e8 bd eb fd ff       	callq  400d60 <printf@plt>
  4221a3:	eb 44                	jmp    4221e9 <validate+0xb0>
  4221a5:	39 3d 71 33 20 00    	cmp    %edi,0x203371(%rip)        # 62551c <vlevel>
  4221ab:	74 18                	je     4221c5 <validate+0x8c>
  4221ad:	bf ca 39 42 00       	mov    $0x4239ca,%edi
  4221b2:	e8 f9 eb fd ff       	callq  400db0 <puts@plt>
  4221b7:	89 de                	mov    %ebx,%esi
  4221b9:	bf 00 00 00 00       	mov    $0x0,%edi
  4221be:	e8 d9 fd ff ff       	callq  421f9c <notify_server>
  4221c3:	eb 24                	jmp    4221e9 <validate+0xb0>
  4221c5:	0f be 15 7c 3f 20 00 	movsbl 0x203f7c(%rip),%edx        # 626148 <target_prefix>
  4221cc:	89 fe                	mov    %edi,%esi
  4221ce:	bf 30 3b 42 00       	mov    $0x423b30,%edi
  4221d3:	b8 00 00 00 00       	mov    $0x0,%eax
  4221d8:	e8 83 eb fd ff       	callq  400d60 <printf@plt>
  4221dd:	89 de                	mov    %ebx,%esi
  4221df:	bf 01 00 00 00       	mov    $0x1,%edi
  4221e4:	e8 b3 fd ff ff       	callq  421f9c <notify_server>
  4221e9:	5b                   	pop    %rbx
  4221ea:	c3                   	retq   

00000000004221eb <fail>:
  4221eb:	48 83 ec 08          	sub    $0x8,%rsp
  4221ef:	83 3d 32 33 20 00 00 	cmpl   $0x0,0x203332(%rip)        # 625528 <is_checker>
  4221f6:	74 0a                	je     422202 <fail+0x17>
  4221f8:	b8 00 00 00 00       	mov    $0x0,%eax
  4221fd:	e8 19 fd ff ff       	callq  421f1b <check_fail>
  422202:	89 fe                	mov    %edi,%esi
  422204:	bf 00 00 00 00       	mov    $0x0,%edi
  422209:	e8 8e fd ff ff       	callq  421f9c <notify_server>
  42220e:	48 83 c4 08          	add    $0x8,%rsp
  422212:	c3                   	retq   

0000000000422213 <bushandler>:
  422213:	48 83 ec 08          	sub    $0x8,%rsp
  422217:	83 3d 0a 33 20 00 00 	cmpl   $0x0,0x20330a(%rip)        # 625528 <is_checker>
  42221e:	74 14                	je     422234 <bushandler+0x21>
  422220:	bf fd 39 42 00       	mov    $0x4239fd,%edi
  422225:	e8 86 eb fd ff       	callq  400db0 <puts@plt>
  42222a:	b8 00 00 00 00       	mov    $0x0,%eax
  42222f:	e8 e7 fc ff ff       	callq  421f1b <check_fail>
  422234:	bf 68 3b 42 00       	mov    $0x423b68,%edi
  422239:	e8 72 eb fd ff       	callq  400db0 <puts@plt>
  42223e:	bf 07 3a 42 00       	mov    $0x423a07,%edi
  422243:	e8 68 eb fd ff       	callq  400db0 <puts@plt>
  422248:	be 00 00 00 00       	mov    $0x0,%esi
  42224d:	bf 00 00 00 00       	mov    $0x0,%edi
  422252:	e8 45 fd ff ff       	callq  421f9c <notify_server>
  422257:	bf 01 00 00 00       	mov    $0x1,%edi
  42225c:	e8 6f eb fd ff       	callq  400dd0 <exit@plt>

0000000000422261 <seghandler>:
  422261:	48 83 ec 08          	sub    $0x8,%rsp
  422265:	83 3d bc 32 20 00 00 	cmpl   $0x0,0x2032bc(%rip)        # 625528 <is_checker>
  42226c:	74 14                	je     422282 <seghandler+0x21>
  42226e:	bf 1d 3a 42 00       	mov    $0x423a1d,%edi
  422273:	e8 38 eb fd ff       	callq  400db0 <puts@plt>
  422278:	b8 00 00 00 00       	mov    $0x0,%eax
  42227d:	e8 99 fc ff ff       	callq  421f1b <check_fail>
  422282:	bf 88 3b 42 00       	mov    $0x423b88,%edi
  422287:	e8 24 eb fd ff       	callq  400db0 <puts@plt>
  42228c:	bf 07 3a 42 00       	mov    $0x423a07,%edi
  422291:	e8 1a eb fd ff       	callq  400db0 <puts@plt>
  422296:	be 00 00 00 00       	mov    $0x0,%esi
  42229b:	bf 00 00 00 00       	mov    $0x0,%edi
  4222a0:	e8 f7 fc ff ff       	callq  421f9c <notify_server>
  4222a5:	bf 01 00 00 00       	mov    $0x1,%edi
  4222aa:	e8 21 eb fd ff       	callq  400dd0 <exit@plt>

00000000004222af <illegalhandler>:
  4222af:	48 83 ec 08          	sub    $0x8,%rsp
  4222b3:	83 3d 6e 32 20 00 00 	cmpl   $0x0,0x20326e(%rip)        # 625528 <is_checker>
  4222ba:	74 14                	je     4222d0 <illegalhandler+0x21>
  4222bc:	bf 30 3a 42 00       	mov    $0x423a30,%edi
  4222c1:	e8 ea ea fd ff       	callq  400db0 <puts@plt>
  4222c6:	b8 00 00 00 00       	mov    $0x0,%eax
  4222cb:	e8 4b fc ff ff       	callq  421f1b <check_fail>
  4222d0:	bf b0 3b 42 00       	mov    $0x423bb0,%edi
  4222d5:	e8 d6 ea fd ff       	callq  400db0 <puts@plt>
  4222da:	bf 07 3a 42 00       	mov    $0x423a07,%edi
  4222df:	e8 cc ea fd ff       	callq  400db0 <puts@plt>
  4222e4:	be 00 00 00 00       	mov    $0x0,%esi
  4222e9:	bf 00 00 00 00       	mov    $0x0,%edi
  4222ee:	e8 a9 fc ff ff       	callq  421f9c <notify_server>
  4222f3:	bf 01 00 00 00       	mov    $0x1,%edi
  4222f8:	e8 d3 ea fd ff       	callq  400dd0 <exit@plt>

00000000004222fd <sigalrmhandler>:
  4222fd:	48 83 ec 08          	sub    $0x8,%rsp
  422301:	83 3d 20 32 20 00 00 	cmpl   $0x0,0x203220(%rip)        # 625528 <is_checker>
  422308:	74 14                	je     42231e <sigalrmhandler+0x21>
  42230a:	bf 44 3a 42 00       	mov    $0x423a44,%edi
  42230f:	e8 9c ea fd ff       	callq  400db0 <puts@plt>
  422314:	b8 00 00 00 00       	mov    $0x0,%eax
  422319:	e8 fd fb ff ff       	callq  421f1b <check_fail>
  42231e:	be 05 00 00 00       	mov    $0x5,%esi
  422323:	bf e0 3b 42 00       	mov    $0x423be0,%edi
  422328:	b8 00 00 00 00       	mov    $0x0,%eax
  42232d:	e8 2e ea fd ff       	callq  400d60 <printf@plt>
  422332:	be 00 00 00 00       	mov    $0x0,%esi
  422337:	bf 00 00 00 00       	mov    $0x0,%edi
  42233c:	e8 5b fc ff ff       	callq  421f9c <notify_server>
  422341:	bf 01 00 00 00       	mov    $0x1,%edi
  422346:	e8 85 ea fd ff       	callq  400dd0 <exit@plt>

000000000042234b <launch>:
  42234b:	55                   	push   %rbp
  42234c:	48 89 e5             	mov    %rsp,%rbp
  42234f:	48 89 fa             	mov    %rdi,%rdx
  422352:	48 8d 47 1e          	lea    0x1e(%rdi),%rax
  422356:	48 83 e0 f0          	and    $0xfffffffffffffff0,%rax
  42235a:	48 29 c4             	sub    %rax,%rsp
  42235d:	48 8d 7c 24 0f       	lea    0xf(%rsp),%rdi
  422362:	48 83 e7 f0          	and    $0xfffffffffffffff0,%rdi
  422366:	be f4 00 00 00       	mov    $0xf4,%esi
  42236b:	e8 00 ea fd ff       	callq  400d70 <memset@plt>
  422370:	48 8b 05 69 31 20 00 	mov    0x203169(%rip),%rax        # 6254e0 <stdin@@GLIBC_2.2.5>
  422377:	48 39 05 92 31 20 00 	cmp    %rax,0x203192(%rip)        # 625510 <infile>
  42237e:	75 0f                	jne    42238f <launch+0x44>
  422380:	bf 4c 3a 42 00       	mov    $0x423a4c,%edi
  422385:	b8 00 00 00 00       	mov    $0x0,%eax
  42238a:	e8 d1 e9 fd ff       	callq  400d60 <printf@plt>
  42238f:	c7 05 83 31 20 00 00 	movl   $0x0,0x203183(%rip)        # 62551c <vlevel>
  422396:	00 00 00 
  422399:	b8 00 00 00 00       	mov    $0x0,%eax
  42239e:	e8 e3 fa ff ff       	callq  421e86 <test>
  4223a3:	83 3d 7e 31 20 00 00 	cmpl   $0x0,0x20317e(%rip)        # 625528 <is_checker>
  4223aa:	74 14                	je     4223c0 <launch+0x75>
  4223ac:	bf 59 3a 42 00       	mov    $0x423a59,%edi
  4223b1:	e8 fa e9 fd ff       	callq  400db0 <puts@plt>
  4223b6:	b8 00 00 00 00       	mov    $0x0,%eax
  4223bb:	e8 5b fb ff ff       	callq  421f1b <check_fail>
  4223c0:	bf 64 3a 42 00       	mov    $0x423a64,%edi
  4223c5:	e8 e6 e9 fd ff       	callq  400db0 <puts@plt>
  4223ca:	c9                   	leaveq 
  4223cb:	c3                   	retq   

00000000004223cc <stable_launch>:
  4223cc:	53                   	push   %rbx
  4223cd:	48 89 3d 34 31 20 00 	mov    %rdi,0x203134(%rip)        # 625508 <global_offset>
  4223d4:	41 b9 00 00 00 00    	mov    $0x0,%r9d
  4223da:	41 b8 00 00 00 00    	mov    $0x0,%r8d
  4223e0:	b9 32 01 00 00       	mov    $0x132,%ecx
  4223e5:	ba 07 00 00 00       	mov    $0x7,%edx
  4223ea:	be 00 00 10 00       	mov    $0x100000,%esi
  4223ef:	bf 00 60 58 55       	mov    $0x55586000,%edi
  4223f4:	e8 97 eb fd ff       	callq  400f90 <mmap@plt>
  4223f9:	48 89 c3             	mov    %rax,%rbx
  4223fc:	48 3d 00 60 58 55    	cmp    $0x55586000,%rax
  422402:	74 32                	je     422436 <stable_launch+0x6a>
  422404:	be 00 00 10 00       	mov    $0x100000,%esi
  422409:	48 89 c7             	mov    %rax,%rdi
  42240c:	e8 1f eb fd ff       	callq  400f30 <munmap@plt>
  422411:	ba 00 60 58 55       	mov    $0x55586000,%edx
  422416:	be 18 3c 42 00       	mov    $0x423c18,%esi
  42241b:	48 8b 3d ce 30 20 00 	mov    0x2030ce(%rip),%rdi        # 6254f0 <stderr@@GLIBC_2.2.5>
  422422:	b8 00 00 00 00       	mov    $0x0,%eax
  422427:	e8 24 eb fd ff       	callq  400f50 <fprintf@plt>
  42242c:	bf 01 00 00 00       	mov    $0x1,%edi
  422431:	e8 9a e9 fd ff       	callq  400dd0 <exit@plt>
  422436:	48 8d 90 f8 ff 0f 00 	lea    0xffff8(%rax),%rdx
  42243d:	48 89 15 0c 3d 20 00 	mov    %rdx,0x203d0c(%rip)        # 626150 <stack_top>
  422444:	48 89 e0             	mov    %rsp,%rax
  422447:	48 89 d4             	mov    %rdx,%rsp
  42244a:	48 89 c2             	mov    %rax,%rdx
  42244d:	48 89 15 ac 30 20 00 	mov    %rdx,0x2030ac(%rip)        # 625500 <global_save_stack>
  422454:	48 8b 3d ad 30 20 00 	mov    0x2030ad(%rip),%rdi        # 625508 <global_offset>
  42245b:	e8 eb fe ff ff       	callq  42234b <launch>
  422460:	48 8b 05 99 30 20 00 	mov    0x203099(%rip),%rax        # 625500 <global_save_stack>
  422467:	48 89 c4             	mov    %rax,%rsp
  42246a:	be 00 00 10 00       	mov    $0x100000,%esi
  42246f:	48 89 df             	mov    %rbx,%rdi
  422472:	e8 b9 ea fd ff       	callq  400f30 <munmap@plt>
  422477:	5b                   	pop    %rbx
  422478:	c3                   	retq   
  422479:	0f 1f 80 00 00 00 00 	nopl   0x0(%rax)

0000000000422480 <rio_readinitb>:
  422480:	89 37                	mov    %esi,(%rdi)
  422482:	c7 47 04 00 00 00 00 	movl   $0x0,0x4(%rdi)
  422489:	48 8d 47 10          	lea    0x10(%rdi),%rax
  42248d:	48 89 47 08          	mov    %rax,0x8(%rdi)
  422491:	c3                   	retq   

0000000000422492 <sigalrm_handler>:
  422492:	48 83 ec 08          	sub    $0x8,%rsp
  422496:	ba 00 00 00 00       	mov    $0x0,%edx
  42249b:	be 50 3c 42 00       	mov    $0x423c50,%esi
  4224a0:	48 8b 3d 49 30 20 00 	mov    0x203049(%rip),%rdi        # 6254f0 <stderr@@GLIBC_2.2.5>
  4224a7:	b8 00 00 00 00       	mov    $0x0,%eax
  4224ac:	e8 9f ea fd ff       	callq  400f50 <fprintf@plt>
  4224b1:	bf 01 00 00 00       	mov    $0x1,%edi
  4224b6:	e8 15 e9 fd ff       	callq  400dd0 <exit@plt>

00000000004224bb <urlencode>:
  4224bb:	41 54                	push   %r12
  4224bd:	55                   	push   %rbp
  4224be:	53                   	push   %rbx
  4224bf:	48 83 ec 10          	sub    $0x10,%rsp
  4224c3:	48 89 fb             	mov    %rdi,%rbx
  4224c6:	48 89 f5             	mov    %rsi,%rbp
  4224c9:	b8 00 00 00 00       	mov    $0x0,%eax
  4224ce:	48 c7 c1 ff ff ff ff 	mov    $0xffffffffffffffff,%rcx
  4224d5:	f2 ae                	repnz scas %es:(%rdi),%al
  4224d7:	48 f7 d1             	not    %rcx
  4224da:	8d 41 ff             	lea    -0x1(%rcx),%eax
  4224dd:	e9 93 00 00 00       	jmpq   422575 <urlencode+0xba>
  4224e2:	0f b6 13             	movzbl (%rbx),%edx
  4224e5:	80 fa 2a             	cmp    $0x2a,%dl
  4224e8:	0f 94 c1             	sete   %cl
  4224eb:	80 fa 2d             	cmp    $0x2d,%dl
  4224ee:	0f 94 c0             	sete   %al
  4224f1:	08 c1                	or     %al,%cl
  4224f3:	75 1f                	jne    422514 <urlencode+0x59>
  4224f5:	80 fa 2e             	cmp    $0x2e,%dl
  4224f8:	74 1a                	je     422514 <urlencode+0x59>
  4224fa:	80 fa 5f             	cmp    $0x5f,%dl
  4224fd:	74 15                	je     422514 <urlencode+0x59>
  4224ff:	8d 42 d0             	lea    -0x30(%rdx),%eax
  422502:	3c 09                	cmp    $0x9,%al
  422504:	76 0e                	jbe    422514 <urlencode+0x59>
  422506:	8d 42 bf             	lea    -0x41(%rdx),%eax
  422509:	3c 19                	cmp    $0x19,%al
  42250b:	76 07                	jbe    422514 <urlencode+0x59>
  42250d:	8d 42 9f             	lea    -0x61(%rdx),%eax
  422510:	3c 19                	cmp    $0x19,%al
  422512:	77 09                	ja     42251d <urlencode+0x62>
  422514:	88 55 00             	mov    %dl,0x0(%rbp)
  422517:	48 8d 6d 01          	lea    0x1(%rbp),%rbp
  42251b:	eb 51                	jmp    42256e <urlencode+0xb3>
  42251d:	80 fa 20             	cmp    $0x20,%dl
  422520:	75 0a                	jne    42252c <urlencode+0x71>
  422522:	c6 45 00 2b          	movb   $0x2b,0x0(%rbp)
  422526:	48 8d 6d 01          	lea    0x1(%rbp),%rbp
  42252a:	eb 42                	jmp    42256e <urlencode+0xb3>
  42252c:	8d 42 e0             	lea    -0x20(%rdx),%eax
  42252f:	3c 5f                	cmp    $0x5f,%al
  422531:	0f 96 c1             	setbe  %cl
  422534:	80 fa 09             	cmp    $0x9,%dl
  422537:	0f 94 c0             	sete   %al
  42253a:	08 c1                	or     %al,%cl
  42253c:	74 45                	je     422583 <urlencode+0xc8>
  42253e:	0f b6 d2             	movzbl %dl,%edx
  422541:	be 05 3d 42 00       	mov    $0x423d05,%esi
  422546:	48 89 e7             	mov    %rsp,%rdi
  422549:	b8 00 00 00 00       	mov    $0x0,%eax
  42254e:	e8 2d e9 fd ff       	callq  400e80 <sprintf@plt>
  422553:	0f b6 04 24          	movzbl (%rsp),%eax
  422557:	88 45 00             	mov    %al,0x0(%rbp)
  42255a:	0f b6 44 24 01       	movzbl 0x1(%rsp),%eax
  42255f:	88 45 01             	mov    %al,0x1(%rbp)
  422562:	0f b6 44 24 02       	movzbl 0x2(%rsp),%eax
  422567:	88 45 02             	mov    %al,0x2(%rbp)
  42256a:	48 8d 6d 03          	lea    0x3(%rbp),%rbp
  42256e:	48 83 c3 01          	add    $0x1,%rbx
  422572:	44 89 e0             	mov    %r12d,%eax
  422575:	44 8d 60 ff          	lea    -0x1(%rax),%r12d
  422579:	85 c0                	test   %eax,%eax
  42257b:	0f 85 61 ff ff ff    	jne    4224e2 <urlencode+0x27>
  422581:	eb 05                	jmp    422588 <urlencode+0xcd>
  422583:	b8 ff ff ff ff       	mov    $0xffffffff,%eax
  422588:	48 83 c4 10          	add    $0x10,%rsp
  42258c:	5b                   	pop    %rbx
  42258d:	5d                   	pop    %rbp
  42258e:	41 5c                	pop    %r12
  422590:	c3                   	retq   

0000000000422591 <rio_writen>:
  422591:	41 55                	push   %r13
  422593:	41 54                	push   %r12
  422595:	55                   	push   %rbp
  422596:	53                   	push   %rbx
  422597:	48 83 ec 08          	sub    $0x8,%rsp
  42259b:	41 89 fc             	mov    %edi,%r12d
  42259e:	48 89 f5             	mov    %rsi,%rbp
  4225a1:	49 89 d5             	mov    %rdx,%r13
  4225a4:	48 89 d3             	mov    %rdx,%rbx
  4225a7:	eb 28                	jmp    4225d1 <rio_writen+0x40>
  4225a9:	48 89 da             	mov    %rbx,%rdx
  4225ac:	48 89 ee             	mov    %rbp,%rsi
  4225af:	44 89 e7             	mov    %r12d,%edi
  4225b2:	e8 a9 e9 fd ff       	callq  400f60 <write@plt>
  4225b7:	48 85 c0             	test   %rax,%rax
  4225ba:	7f 0f                	jg     4225cb <rio_writen+0x3a>
  4225bc:	e8 3f e9 fd ff       	callq  400f00 <__errno_location@plt>
  4225c1:	83 38 04             	cmpl   $0x4,(%rax)
  4225c4:	75 15                	jne    4225db <rio_writen+0x4a>
  4225c6:	b8 00 00 00 00       	mov    $0x0,%eax
  4225cb:	48 29 c3             	sub    %rax,%rbx
  4225ce:	48 01 c5             	add    %rax,%rbp
  4225d1:	48 85 db             	test   %rbx,%rbx
  4225d4:	75 d3                	jne    4225a9 <rio_writen+0x18>
  4225d6:	4c 89 e8             	mov    %r13,%rax
  4225d9:	eb 07                	jmp    4225e2 <rio_writen+0x51>
  4225db:	48 c7 c0 ff ff ff ff 	mov    $0xffffffffffffffff,%rax
  4225e2:	48 83 c4 08          	add    $0x8,%rsp
  4225e6:	5b                   	pop    %rbx
  4225e7:	5d                   	pop    %rbp
  4225e8:	41 5c                	pop    %r12
  4225ea:	41 5d                	pop    %r13
  4225ec:	c3                   	retq   

00000000004225ed <rio_read>:
  4225ed:	41 56                	push   %r14
  4225ef:	41 55                	push   %r13
  4225f1:	41 54                	push   %r12
  4225f3:	55                   	push   %rbp
  4225f4:	53                   	push   %rbx
  4225f5:	48 89 fb             	mov    %rdi,%rbx
  4225f8:	49 89 f6             	mov    %rsi,%r14
  4225fb:	49 89 d5             	mov    %rdx,%r13
  4225fe:	4c 8d 67 10          	lea    0x10(%rdi),%r12
  422602:	eb 2a                	jmp    42262e <rio_read+0x41>
  422604:	ba 00 20 00 00       	mov    $0x2000,%edx
  422609:	4c 89 e6             	mov    %r12,%rsi
  42260c:	8b 3b                	mov    (%rbx),%edi
  42260e:	e8 ed e7 fd ff       	callq  400e00 <read@plt>
  422613:	89 43 04             	mov    %eax,0x4(%rbx)
  422616:	85 c0                	test   %eax,%eax
  422618:	79 0c                	jns    422626 <rio_read+0x39>
  42261a:	e8 e1 e8 fd ff       	callq  400f00 <__errno_location@plt>
  42261f:	83 38 04             	cmpl   $0x4,(%rax)
  422622:	74 0a                	je     42262e <rio_read+0x41>
  422624:	eb 37                	jmp    42265d <rio_read+0x70>
  422626:	85 c0                	test   %eax,%eax
  422628:	74 3c                	je     422666 <rio_read+0x79>
  42262a:	4c 89 63 08          	mov    %r12,0x8(%rbx)
  42262e:	8b 6b 04             	mov    0x4(%rbx),%ebp
  422631:	85 ed                	test   %ebp,%ebp
  422633:	7e cf                	jle    422604 <rio_read+0x17>
  422635:	89 e8                	mov    %ebp,%eax
  422637:	4c 39 e8             	cmp    %r13,%rax
  42263a:	72 03                	jb     42263f <rio_read+0x52>
  42263c:	44 89 ed             	mov    %r13d,%ebp
  42263f:	4c 63 e5             	movslq %ebp,%r12
  422642:	48 8b 73 08          	mov    0x8(%rbx),%rsi
  422646:	4c 89 e2             	mov    %r12,%rdx
  422649:	4c 89 f7             	mov    %r14,%rdi
  42264c:	e8 2f e9 fd ff       	callq  400f80 <memcpy@plt>
  422651:	4c 01 63 08          	add    %r12,0x8(%rbx)
  422655:	29 6b 04             	sub    %ebp,0x4(%rbx)
  422658:	4c 89 e0             	mov    %r12,%rax
  42265b:	eb 0e                	jmp    42266b <rio_read+0x7e>
  42265d:	48 c7 c0 ff ff ff ff 	mov    $0xffffffffffffffff,%rax
  422664:	eb 05                	jmp    42266b <rio_read+0x7e>
  422666:	b8 00 00 00 00       	mov    $0x0,%eax
  42266b:	5b                   	pop    %rbx
  42266c:	5d                   	pop    %rbp
  42266d:	41 5c                	pop    %r12
  42266f:	41 5d                	pop    %r13
  422671:	41 5e                	pop    %r14
  422673:	c3                   	retq   

0000000000422674 <rio_readlineb>:
  422674:	41 55                	push   %r13
  422676:	41 54                	push   %r12
  422678:	55                   	push   %rbp
  422679:	53                   	push   %rbx
  42267a:	48 83 ec 18          	sub    $0x18,%rsp
  42267e:	49 89 fd             	mov    %rdi,%r13
  422681:	48 89 f5             	mov    %rsi,%rbp
  422684:	49 89 d4             	mov    %rdx,%r12
  422687:	bb 01 00 00 00       	mov    $0x1,%ebx
  42268c:	eb 3d                	jmp    4226cb <rio_readlineb+0x57>
  42268e:	ba 01 00 00 00       	mov    $0x1,%edx
  422693:	48 8d 74 24 0f       	lea    0xf(%rsp),%rsi
  422698:	4c 89 ef             	mov    %r13,%rdi
  42269b:	e8 4d ff ff ff       	callq  4225ed <rio_read>
  4226a0:	83 f8 01             	cmp    $0x1,%eax
  4226a3:	75 12                	jne    4226b7 <rio_readlineb+0x43>
  4226a5:	48 8d 55 01          	lea    0x1(%rbp),%rdx
  4226a9:	0f b6 44 24 0f       	movzbl 0xf(%rsp),%eax
  4226ae:	88 45 00             	mov    %al,0x0(%rbp)
  4226b1:	3c 0a                	cmp    $0xa,%al
  4226b3:	75 0f                	jne    4226c4 <rio_readlineb+0x50>
  4226b5:	eb 1b                	jmp    4226d2 <rio_readlineb+0x5e>
  4226b7:	85 c0                	test   %eax,%eax
  4226b9:	75 23                	jne    4226de <rio_readlineb+0x6a>
  4226bb:	48 83 fb 01          	cmp    $0x1,%rbx
  4226bf:	90                   	nop
  4226c0:	75 13                	jne    4226d5 <rio_readlineb+0x61>
  4226c2:	eb 23                	jmp    4226e7 <rio_readlineb+0x73>
  4226c4:	48 83 c3 01          	add    $0x1,%rbx
  4226c8:	48 89 d5             	mov    %rdx,%rbp
  4226cb:	4c 39 e3             	cmp    %r12,%rbx
  4226ce:	72 be                	jb     42268e <rio_readlineb+0x1a>
  4226d0:	eb 03                	jmp    4226d5 <rio_readlineb+0x61>
  4226d2:	48 89 d5             	mov    %rdx,%rbp
  4226d5:	c6 45 00 00          	movb   $0x0,0x0(%rbp)
  4226d9:	48 89 d8             	mov    %rbx,%rax
  4226dc:	eb 0e                	jmp    4226ec <rio_readlineb+0x78>
  4226de:	48 c7 c0 ff ff ff ff 	mov    $0xffffffffffffffff,%rax
  4226e5:	eb 05                	jmp    4226ec <rio_readlineb+0x78>
  4226e7:	b8 00 00 00 00       	mov    $0x0,%eax
  4226ec:	48 83 c4 18          	add    $0x18,%rsp
  4226f0:	5b                   	pop    %rbx
  4226f1:	5d                   	pop    %rbp
  4226f2:	41 5c                	pop    %r12
  4226f4:	41 5d                	pop    %r13
  4226f6:	c3                   	retq   

00000000004226f7 <submitr>:
  4226f7:	41 57                	push   %r15
  4226f9:	41 56                	push   %r14
  4226fb:	41 55                	push   %r13
  4226fd:	41 54                	push   %r12
  4226ff:	55                   	push   %rbp
  422700:	53                   	push   %rbx
  422701:	48 81 ec 58 a0 00 00 	sub    $0xa058,%rsp
  422708:	49 89 fc             	mov    %rdi,%r12
  42270b:	89 74 24 1c          	mov    %esi,0x1c(%rsp)
  42270f:	48 89 54 24 10       	mov    %rdx,0x10(%rsp)
  422714:	49 89 cf             	mov    %rcx,%r15
  422717:	4d 89 c6             	mov    %r8,%r14
  42271a:	4d 89 cd             	mov    %r9,%r13
  42271d:	48 8b 9c 24 90 a0 00 	mov    0xa090(%rsp),%rbx
  422724:	00 
  422725:	c7 84 24 2c 20 00 00 	movl   $0x0,0x202c(%rsp)
  42272c:	00 00 00 00 
  422730:	ba 00 00 00 00       	mov    $0x0,%edx
  422735:	be 01 00 00 00       	mov    $0x1,%esi
  42273a:	bf 02 00 00 00       	mov    $0x2,%edi
  42273f:	e8 9c e7 fd ff       	callq  400ee0 <socket@plt>
  422744:	89 c5                	mov    %eax,%ebp
  422746:	85 c0                	test   %eax,%eax
  422748:	79 4e                	jns    422798 <submitr+0xa1>
  42274a:	48 b8 45 72 72 6f 72 	movabs $0x43203a726f727245,%rax
  422751:	3a 20 43 
  422754:	48 89 03             	mov    %rax,(%rbx)
  422757:	48 b8 6c 69 65 6e 74 	movabs $0x6e7520746e65696c,%rax
  42275e:	20 75 6e 
  422761:	48 89 43 08          	mov    %rax,0x8(%rbx)
  422765:	48 b8 61 62 6c 65 20 	movabs $0x206f7420656c6261,%rax
  42276c:	74 6f 20 
  42276f:	48 89 43 10          	mov    %rax,0x10(%rbx)
  422773:	48 b8 63 72 65 61 74 	movabs $0x7320657461657263,%rax
  42277a:	65 20 73 
  42277d:	48 89 43 18          	mov    %rax,0x18(%rbx)
  422781:	c7 43 20 6f 63 6b 65 	movl   $0x656b636f,0x20(%rbx)
  422788:	66 c7 43 24 74 00    	movw   $0x74,0x24(%rbx)
  42278e:	b8 ff ff ff ff       	mov    $0xffffffff,%eax
  422793:	e9 83 06 00 00       	jmpq   422e1b <submitr+0x724>
  422798:	4c 89 e7             	mov    %r12,%rdi
  42279b:	e8 f0 e5 fd ff       	callq  400d90 <gethostbyname@plt>
  4227a0:	48 85 c0             	test   %rax,%rax
  4227a3:	75 75                	jne    42281a <submitr+0x123>
  4227a5:	48 b8 45 72 72 6f 72 	movabs $0x44203a726f727245,%rax
  4227ac:	3a 20 44 
  4227af:	48 89 03             	mov    %rax,(%rbx)
  4227b2:	48 b8 4e 53 20 69 73 	movabs $0x6e7520736920534e,%rax
  4227b9:	20 75 6e 
  4227bc:	48 89 43 08          	mov    %rax,0x8(%rbx)
  4227c0:	48 b8 61 62 6c 65 20 	movabs $0x206f7420656c6261,%rax
  4227c7:	74 6f 20 
  4227ca:	48 89 43 10          	mov    %rax,0x10(%rbx)
  4227ce:	48 b8 72 65 73 6f 6c 	movabs $0x2065766c6f736572,%rax
  4227d5:	76 65 20 
  4227d8:	48 89 43 18          	mov    %rax,0x18(%rbx)
  4227dc:	48 b8 41 75 74 6f 6c 	movabs $0x2062616c6f747541,%rax
  4227e3:	61 62 20 
  4227e6:	48 89 43 20          	mov    %rax,0x20(%rbx)
  4227ea:	48 b8 73 65 72 76 65 	movabs $0x6120726576726573,%rax
  4227f1:	72 20 61 
  4227f4:	48 89 43 28          	mov    %rax,0x28(%rbx)
  4227f8:	c7 43 30 64 64 72 65 	movl   $0x65726464,0x30(%rbx)
  4227ff:	66 c7 43 34 73 73    	movw   $0x7373,0x34(%rbx)
  422805:	c6 43 36 00          	movb   $0x0,0x36(%rbx)
  422809:	89 ef                	mov    %ebp,%edi
  42280b:	e8 70 e5 fd ff       	callq  400d80 <close@plt>
  422810:	b8 ff ff ff ff       	mov    $0xffffffff,%eax
  422815:	e9 01 06 00 00       	jmpq   422e1b <submitr+0x724>
  42281a:	48 c7 84 24 40 a0 00 	movq   $0x0,0xa040(%rsp)
  422821:	00 00 00 00 00 
  422826:	48 c7 84 24 48 a0 00 	movq   $0x0,0xa048(%rsp)
  42282d:	00 00 00 00 00 
  422832:	66 c7 84 24 40 a0 00 	movw   $0x2,0xa040(%rsp)
  422839:	00 02 00 
  42283c:	48 8b 48 18          	mov    0x18(%rax),%rcx
  422840:	48 63 50 14          	movslq 0x14(%rax),%rdx
  422844:	48 8d b4 24 44 a0 00 	lea    0xa044(%rsp),%rsi
  42284b:	00 
  42284c:	48 8b 39             	mov    (%rcx),%rdi
  42284f:	e8 1c e6 fd ff       	callq  400e70 <bcopy@plt>
  422854:	0f b7 44 24 1c       	movzwl 0x1c(%rsp),%eax
  422859:	66 c1 c8 08          	ror    $0x8,%ax
  42285d:	66 89 84 24 42 a0 00 	mov    %ax,0xa042(%rsp)
  422864:	00 
  422865:	ba 10 00 00 00       	mov    $0x10,%edx
  42286a:	48 8d b4 24 40 a0 00 	lea    0xa040(%rsp),%rsi
  422871:	00 
  422872:	89 ef                	mov    %ebp,%edi
  422874:	e8 37 e6 fd ff       	callq  400eb0 <connect@plt>
  422879:	85 c0                	test   %eax,%eax
  42287b:	79 67                	jns    4228e4 <submitr+0x1ed>
  42287d:	48 b8 45 72 72 6f 72 	movabs $0x55203a726f727245,%rax
  422884:	3a 20 55 
  422887:	48 89 03             	mov    %rax,(%rbx)
  42288a:	48 b8 6e 61 62 6c 65 	movabs $0x6f7420656c62616e,%rax
  422891:	20 74 6f 
  422894:	48 89 43 08          	mov    %rax,0x8(%rbx)
  422898:	48 b8 20 63 6f 6e 6e 	movabs $0x7463656e6e6f6320,%rax
  42289f:	65 63 74 
  4228a2:	48 89 43 10          	mov    %rax,0x10(%rbx)
  4228a6:	48 b8 20 74 6f 20 74 	movabs $0x20656874206f7420,%rax
  4228ad:	68 65 20 
  4228b0:	48 89 43 18          	mov    %rax,0x18(%rbx)
  4228b4:	48 b8 41 75 74 6f 6c 	movabs $0x2062616c6f747541,%rax
  4228bb:	61 62 20 
  4228be:	48 89 43 20          	mov    %rax,0x20(%rbx)
  4228c2:	c7 43 28 73 65 72 76 	movl   $0x76726573,0x28(%rbx)
  4228c9:	66 c7 43 2c 65 72    	movw   $0x7265,0x2c(%rbx)
  4228cf:	c6 43 2e 00          	movb   $0x0,0x2e(%rbx)
  4228d3:	89 ef                	mov    %ebp,%edi
  4228d5:	e8 a6 e4 fd ff       	callq  400d80 <close@plt>
  4228da:	b8 ff ff ff ff       	mov    $0xffffffff,%eax
  4228df:	e9 37 05 00 00       	jmpq   422e1b <submitr+0x724>
  4228e4:	48 c7 c2 ff ff ff ff 	mov    $0xffffffffffffffff,%rdx
  4228eb:	4c 89 ef             	mov    %r13,%rdi
  4228ee:	b8 00 00 00 00       	mov    $0x0,%eax
  4228f3:	48 89 d1             	mov    %rdx,%rcx
  4228f6:	f2 ae                	repnz scas %es:(%rdi),%al
  4228f8:	48 f7 d1             	not    %rcx
  4228fb:	48 89 ce             	mov    %rcx,%rsi
  4228fe:	48 8b 7c 24 10       	mov    0x10(%rsp),%rdi
  422903:	48 89 d1             	mov    %rdx,%rcx
  422906:	f2 ae                	repnz scas %es:(%rdi),%al
  422908:	48 f7 d1             	not    %rcx
  42290b:	49 89 c8             	mov    %rcx,%r8
  42290e:	4c 89 ff             	mov    %r15,%rdi
  422911:	48 89 d1             	mov    %rdx,%rcx
  422914:	f2 ae                	repnz scas %es:(%rdi),%al
  422916:	49 29 c8             	sub    %rcx,%r8
  422919:	4c 89 f7             	mov    %r14,%rdi
  42291c:	48 89 d1             	mov    %rdx,%rcx
  42291f:	f2 ae                	repnz scas %es:(%rdi),%al
  422921:	49 29 c8             	sub    %rcx,%r8
  422924:	48 8d 44 76 fd       	lea    -0x3(%rsi,%rsi,2),%rax
  422929:	49 8d 44 00 7b       	lea    0x7b(%r8,%rax,1),%rax
  42292e:	48 3d 00 20 00 00    	cmp    $0x2000,%rax
  422934:	76 72                	jbe    4229a8 <submitr+0x2b1>
  422936:	48 b8 45 72 72 6f 72 	movabs $0x52203a726f727245,%rax
  42293d:	3a 20 52 
  422940:	48 89 03             	mov    %rax,(%rbx)
  422943:	48 b8 65 73 75 6c 74 	movabs $0x747320746c757365,%rax
  42294a:	20 73 74 
  42294d:	48 89 43 08          	mov    %rax,0x8(%rbx)
  422951:	48 b8 72 69 6e 67 20 	movabs $0x6f6f7420676e6972,%rax
  422958:	74 6f 6f 
  42295b:	48 89 43 10          	mov    %rax,0x10(%rbx)
  42295f:	48 b8 20 6c 61 72 67 	movabs $0x202e656772616c20,%rax
  422966:	65 2e 20 
  422969:	48 89 43 18          	mov    %rax,0x18(%rbx)
  42296d:	48 b8 49 6e 63 72 65 	movabs $0x6573616572636e49,%rax
  422974:	61 73 65 
  422977:	48 89 43 20          	mov    %rax,0x20(%rbx)
  42297b:	48 b8 20 53 55 42 4d 	movabs $0x5254494d42555320,%rax
  422982:	49 54 52 
  422985:	48 89 43 28          	mov    %rax,0x28(%rbx)
  422989:	48 b8 5f 4d 41 58 42 	movabs $0x46554258414d5f,%rax
  422990:	55 46 00 
  422993:	48 89 43 30          	mov    %rax,0x30(%rbx)
  422997:	89 ef                	mov    %ebp,%edi
  422999:	e8 e2 e3 fd ff       	callq  400d80 <close@plt>
  42299e:	b8 ff ff ff ff       	mov    $0xffffffff,%eax
  4229a3:	e9 73 04 00 00       	jmpq   422e1b <submitr+0x724>
  4229a8:	48 8d b4 24 30 40 00 	lea    0x4030(%rsp),%rsi
  4229af:	00 
  4229b0:	b9 00 04 00 00       	mov    $0x400,%ecx
  4229b5:	b8 00 00 00 00       	mov    $0x0,%eax
  4229ba:	48 89 f7             	mov    %rsi,%rdi
  4229bd:	f3 48 ab             	rep stos %rax,%es:(%rdi)
  4229c0:	4c 89 ef             	mov    %r13,%rdi
  4229c3:	e8 f3 fa ff ff       	callq  4224bb <urlencode>
  4229c8:	85 c0                	test   %eax,%eax
  4229ca:	0f 89 8a 00 00 00    	jns    422a5a <submitr+0x363>
  4229d0:	48 b8 45 72 72 6f 72 	movabs $0x52203a726f727245,%rax
  4229d7:	3a 20 52 
  4229da:	48 89 03             	mov    %rax,(%rbx)
  4229dd:	48 b8 65 73 75 6c 74 	movabs $0x747320746c757365,%rax
  4229e4:	20 73 74 
  4229e7:	48 89 43 08          	mov    %rax,0x8(%rbx)
  4229eb:	48 b8 72 69 6e 67 20 	movabs $0x6e6f6320676e6972,%rax
  4229f2:	63 6f 6e 
  4229f5:	48 89 43 10          	mov    %rax,0x10(%rbx)
  4229f9:	48 b8 74 61 69 6e 73 	movabs $0x6e6120736e696174,%rax
  422a00:	20 61 6e 
  422a03:	48 89 43 18          	mov    %rax,0x18(%rbx)
  422a07:	48 b8 20 69 6c 6c 65 	movabs $0x6c6167656c6c6920,%rax
  422a0e:	67 61 6c 
  422a11:	48 89 43 20          	mov    %rax,0x20(%rbx)
  422a15:	48 b8 20 6f 72 20 75 	movabs $0x72706e7520726f20,%rax
  422a1c:	6e 70 72 
  422a1f:	48 89 43 28          	mov    %rax,0x28(%rbx)
  422a23:	48 b8 69 6e 74 61 62 	movabs $0x20656c6261746e69,%rax
  422a2a:	6c 65 20 
  422a2d:	48 89 43 30          	mov    %rax,0x30(%rbx)
  422a31:	48 b8 63 68 61 72 61 	movabs $0x6574636172616863,%rax
  422a38:	63 74 65 
  422a3b:	48 89 43 38          	mov    %rax,0x38(%rbx)
  422a3f:	66 c7 43 40 72 2e    	movw   $0x2e72,0x40(%rbx)
  422a45:	c6 43 42 00          	movb   $0x0,0x42(%rbx)
  422a49:	89 ef                	mov    %ebp,%edi
  422a4b:	e8 30 e3 fd ff       	callq  400d80 <close@plt>
  422a50:	b8 ff ff ff ff       	mov    $0xffffffff,%eax
  422a55:	e9 c1 03 00 00       	jmpq   422e1b <submitr+0x724>
  422a5a:	4c 89 24 24          	mov    %r12,(%rsp)
  422a5e:	4c 8d 8c 24 30 40 00 	lea    0x4030(%rsp),%r9
  422a65:	00 
  422a66:	4d 89 f8             	mov    %r15,%r8
  422a69:	4c 89 f1             	mov    %r14,%rcx
  422a6c:	48 8b 54 24 10       	mov    0x10(%rsp),%rdx
  422a71:	be 78 3c 42 00       	mov    $0x423c78,%esi
  422a76:	48 8d bc 24 30 60 00 	lea    0x6030(%rsp),%rdi
  422a7d:	00 
  422a7e:	b8 00 00 00 00       	mov    $0x0,%eax
  422a83:	e8 f8 e3 fd ff       	callq  400e80 <sprintf@plt>
  422a88:	48 8d bc 24 30 60 00 	lea    0x6030(%rsp),%rdi
  422a8f:	00 
  422a90:	b8 00 00 00 00       	mov    $0x0,%eax
  422a95:	48 c7 c1 ff ff ff ff 	mov    $0xffffffffffffffff,%rcx
  422a9c:	f2 ae                	repnz scas %es:(%rdi),%al
  422a9e:	48 f7 d1             	not    %rcx
  422aa1:	48 8d 51 ff          	lea    -0x1(%rcx),%rdx
  422aa5:	48 8d b4 24 30 60 00 	lea    0x6030(%rsp),%rsi
  422aac:	00 
  422aad:	89 ef                	mov    %ebp,%edi
  422aaf:	e8 dd fa ff ff       	callq  422591 <rio_writen>
  422ab4:	48 85 c0             	test   %rax,%rax
  422ab7:	79 6b                	jns    422b24 <submitr+0x42d>
  422ab9:	48 b8 45 72 72 6f 72 	movabs $0x43203a726f727245,%rax
  422ac0:	3a 20 43 
  422ac3:	48 89 03             	mov    %rax,(%rbx)
  422ac6:	48 b8 6c 69 65 6e 74 	movabs $0x6e7520746e65696c,%rax
  422acd:	20 75 6e 
  422ad0:	48 89 43 08          	mov    %rax,0x8(%rbx)
  422ad4:	48 b8 61 62 6c 65 20 	movabs $0x206f7420656c6261,%rax
  422adb:	74 6f 20 
  422ade:	48 89 43 10          	mov    %rax,0x10(%rbx)
  422ae2:	48 b8 77 72 69 74 65 	movabs $0x6f74206574697277,%rax
  422ae9:	20 74 6f 
  422aec:	48 89 43 18          	mov    %rax,0x18(%rbx)
  422af0:	48 b8 20 74 68 65 20 	movabs $0x7475412065687420,%rax
  422af7:	41 75 74 
  422afa:	48 89 43 20          	mov    %rax,0x20(%rbx)
  422afe:	48 b8 6f 6c 61 62 20 	movabs $0x7265732062616c6f,%rax
  422b05:	73 65 72 
  422b08:	48 89 43 28          	mov    %rax,0x28(%rbx)
  422b0c:	c7 43 30 76 65 72 00 	movl   $0x726576,0x30(%rbx)
  422b13:	89 ef                	mov    %ebp,%edi
  422b15:	e8 66 e2 fd ff       	callq  400d80 <close@plt>
  422b1a:	b8 ff ff ff ff       	mov    $0xffffffff,%eax
  422b1f:	e9 f7 02 00 00       	jmpq   422e1b <submitr+0x724>
  422b24:	89 ee                	mov    %ebp,%esi
  422b26:	48 8d bc 24 30 80 00 	lea    0x8030(%rsp),%rdi
  422b2d:	00 
  422b2e:	e8 4d f9 ff ff       	callq  422480 <rio_readinitb>
  422b33:	ba 00 20 00 00       	mov    $0x2000,%edx
  422b38:	48 8d b4 24 30 60 00 	lea    0x6030(%rsp),%rsi
  422b3f:	00 
  422b40:	48 8d bc 24 30 80 00 	lea    0x8030(%rsp),%rdi
  422b47:	00 
  422b48:	e8 27 fb ff ff       	callq  422674 <rio_readlineb>
  422b4d:	48 85 c0             	test   %rax,%rax
  422b50:	7f 7f                	jg     422bd1 <submitr+0x4da>
  422b52:	48 b8 45 72 72 6f 72 	movabs $0x43203a726f727245,%rax
  422b59:	3a 20 43 
  422b5c:	48 89 03             	mov    %rax,(%rbx)
  422b5f:	48 b8 6c 69 65 6e 74 	movabs $0x6e7520746e65696c,%rax
  422b66:	20 75 6e 
  422b69:	48 89 43 08          	mov    %rax,0x8(%rbx)
  422b6d:	48 b8 61 62 6c 65 20 	movabs $0x206f7420656c6261,%rax
  422b74:	74 6f 20 
  422b77:	48 89 43 10          	mov    %rax,0x10(%rbx)
  422b7b:	48 b8 72 65 61 64 20 	movabs $0x7269662064616572,%rax
  422b82:	66 69 72 
  422b85:	48 89 43 18          	mov    %rax,0x18(%rbx)
  422b89:	48 b8 73 74 20 68 65 	movabs $0x6564616568207473,%rax
  422b90:	61 64 65 
  422b93:	48 89 43 20          	mov    %rax,0x20(%rbx)
  422b97:	48 b8 72 20 66 72 6f 	movabs $0x41206d6f72662072,%rax
  422b9e:	6d 20 41 
  422ba1:	48 89 43 28          	mov    %rax,0x28(%rbx)
  422ba5:	48 b8 75 74 6f 6c 61 	movabs $0x732062616c6f7475,%rax
  422bac:	62 20 73 
  422baf:	48 89 43 30          	mov    %rax,0x30(%rbx)
  422bb3:	c7 43 38 65 72 76 65 	movl   $0x65767265,0x38(%rbx)
  422bba:	66 c7 43 3c 72 00    	movw   $0x72,0x3c(%rbx)
  422bc0:	89 ef                	mov    %ebp,%edi
  422bc2:	e8 b9 e1 fd ff       	callq  400d80 <close@plt>
  422bc7:	b8 ff ff ff ff       	mov    $0xffffffff,%eax
  422bcc:	e9 4a 02 00 00       	jmpq   422e1b <submitr+0x724>
  422bd1:	4c 8d 44 24 20       	lea    0x20(%rsp),%r8
  422bd6:	48 8d 8c 24 2c 20 00 	lea    0x202c(%rsp),%rcx
  422bdd:	00 
  422bde:	48 8d 94 24 30 20 00 	lea    0x2030(%rsp),%rdx
  422be5:	00 
  422be6:	be 0c 3d 42 00       	mov    $0x423d0c,%esi
  422beb:	48 8d bc 24 30 60 00 	lea    0x6030(%rsp),%rdi
  422bf2:	00 
  422bf3:	b8 00 00 00 00       	mov    $0x0,%eax
  422bf8:	e8 c3 e1 fd ff       	callq  400dc0 <__isoc99_sscanf@plt>
  422bfd:	e9 95 00 00 00       	jmpq   422c97 <submitr+0x5a0>
  422c02:	ba 00 20 00 00       	mov    $0x2000,%edx
  422c07:	48 8d b4 24 30 60 00 	lea    0x6030(%rsp),%rsi
  422c0e:	00 
  422c0f:	48 8d bc 24 30 80 00 	lea    0x8030(%rsp),%rdi
  422c16:	00 
  422c17:	e8 58 fa ff ff       	callq  422674 <rio_readlineb>
  422c1c:	48 85 c0             	test   %rax,%rax
  422c1f:	7f 76                	jg     422c97 <submitr+0x5a0>
  422c21:	48 b8 45 72 72 6f 72 	movabs $0x43203a726f727245,%rax
  422c28:	3a 20 43 
  422c2b:	48 89 03             	mov    %rax,(%rbx)
  422c2e:	48 b8 6c 69 65 6e 74 	movabs $0x6e7520746e65696c,%rax
  422c35:	20 75 6e 
  422c38:	48 89 43 08          	mov    %rax,0x8(%rbx)
  422c3c:	48 b8 61 62 6c 65 20 	movabs $0x206f7420656c6261,%rax
  422c43:	74 6f 20 
  422c46:	48 89 43 10          	mov    %rax,0x10(%rbx)
  422c4a:	48 b8 72 65 61 64 20 	movabs $0x6165682064616572,%rax
  422c51:	68 65 61 
  422c54:	48 89 43 18          	mov    %rax,0x18(%rbx)
  422c58:	48 b8 64 65 72 73 20 	movabs $0x6f72662073726564,%rax
  422c5f:	66 72 6f 
  422c62:	48 89 43 20          	mov    %rax,0x20(%rbx)
  422c66:	48 b8 6d 20 41 75 74 	movabs $0x616c6f747541206d,%rax
  422c6d:	6f 6c 61 
  422c70:	48 89 43 28          	mov    %rax,0x28(%rbx)
  422c74:	48 b8 62 20 73 65 72 	movabs $0x7265767265732062,%rax
  422c7b:	76 65 72 
  422c7e:	48 89 43 30          	mov    %rax,0x30(%rbx)
  422c82:	c6 43 38 00          	movb   $0x0,0x38(%rbx)
  422c86:	89 ef                	mov    %ebp,%edi
  422c88:	e8 f3 e0 fd ff       	callq  400d80 <close@plt>
  422c8d:	b8 ff ff ff ff       	mov    $0xffffffff,%eax
  422c92:	e9 84 01 00 00       	jmpq   422e1b <submitr+0x724>
  422c97:	0f b6 84 24 30 60 00 	movzbl 0x6030(%rsp),%eax
  422c9e:	00 
  422c9f:	83 e8 0d             	sub    $0xd,%eax
  422ca2:	75 15                	jne    422cb9 <submitr+0x5c2>
  422ca4:	0f b6 84 24 31 60 00 	movzbl 0x6031(%rsp),%eax
  422cab:	00 
  422cac:	83 e8 0a             	sub    $0xa,%eax
  422caf:	75 08                	jne    422cb9 <submitr+0x5c2>
  422cb1:	0f b6 84 24 32 60 00 	movzbl 0x6032(%rsp),%eax
  422cb8:	00 
  422cb9:	85 c0                	test   %eax,%eax
  422cbb:	0f 85 41 ff ff ff    	jne    422c02 <submitr+0x50b>
  422cc1:	ba 00 20 00 00       	mov    $0x2000,%edx
  422cc6:	48 8d b4 24 30 60 00 	lea    0x6030(%rsp),%rsi
  422ccd:	00 
  422cce:	48 8d bc 24 30 80 00 	lea    0x8030(%rsp),%rdi
  422cd5:	00 
  422cd6:	e8 99 f9 ff ff       	callq  422674 <rio_readlineb>
  422cdb:	48 85 c0             	test   %rax,%rax
  422cde:	0f 8f 80 00 00 00    	jg     422d64 <submitr+0x66d>
  422ce4:	48 b8 45 72 72 6f 72 	movabs $0x43203a726f727245,%rax
  422ceb:	3a 20 43 
  422cee:	48 89 03             	mov    %rax,(%rbx)
  422cf1:	48 b8 6c 69 65 6e 74 	movabs $0x6e7520746e65696c,%rax
  422cf8:	20 75 6e 
  422cfb:	48 89 43 08          	mov    %rax,0x8(%rbx)
  422cff:	48 b8 61 62 6c 65 20 	movabs $0x206f7420656c6261,%rax
  422d06:	74 6f 20 
  422d09:	48 89 43 10          	mov    %rax,0x10(%rbx)
  422d0d:	48 b8 72 65 61 64 20 	movabs $0x6174732064616572,%rax
  422d14:	73 74 61 
  422d17:	48 89 43 18          	mov    %rax,0x18(%rbx)
  422d1b:	48 b8 74 75 73 20 6d 	movabs $0x7373656d20737574,%rax
  422d22:	65 73 73 
  422d25:	48 89 43 20          	mov    %rax,0x20(%rbx)
  422d29:	48 b8 61 67 65 20 66 	movabs $0x6d6f726620656761,%rax
  422d30:	72 6f 6d 
  422d33:	48 89 43 28          	mov    %rax,0x28(%rbx)
  422d37:	48 b8 20 41 75 74 6f 	movabs $0x62616c6f74754120,%rax
  422d3e:	6c 61 62 
  422d41:	48 89 43 30          	mov    %rax,0x30(%rbx)
  422d45:	48 b8 20 73 65 72 76 	movabs $0x72657672657320,%rax
  422d4c:	65 72 00 
  422d4f:	48 89 43 38          	mov    %rax,0x38(%rbx)
  422d53:	89 ef                	mov    %ebp,%edi
  422d55:	e8 26 e0 fd ff       	callq  400d80 <close@plt>
  422d5a:	b8 ff ff ff ff       	mov    $0xffffffff,%eax
  422d5f:	e9 b7 00 00 00       	jmpq   422e1b <submitr+0x724>
  422d64:	8b 94 24 2c 20 00 00 	mov    0x202c(%rsp),%edx
  422d6b:	81 fa c8 00 00 00    	cmp    $0xc8,%edx
  422d71:	74 28                	je     422d9b <submitr+0x6a4>
  422d73:	48 8d 4c 24 20       	lea    0x20(%rsp),%rcx
  422d78:	be d8 3c 42 00       	mov    $0x423cd8,%esi
  422d7d:	48 89 df             	mov    %rbx,%rdi
  422d80:	b8 00 00 00 00       	mov    $0x0,%eax
  422d85:	e8 f6 e0 fd ff       	callq  400e80 <sprintf@plt>
  422d8a:	89 ef                	mov    %ebp,%edi
  422d8c:	e8 ef df fd ff       	callq  400d80 <close@plt>
  422d91:	b8 ff ff ff ff       	mov    $0xffffffff,%eax
  422d96:	e9 80 00 00 00       	jmpq   422e1b <submitr+0x724>
  422d9b:	48 8d b4 24 30 60 00 	lea    0x6030(%rsp),%rsi
  422da2:	00 
  422da3:	48 89 df             	mov    %rbx,%rdi
  422da6:	e8 75 e1 fd ff       	callq  400f20 <strcpy@plt>
  422dab:	89 ef                	mov    %ebp,%edi
  422dad:	e8 ce df fd ff       	callq  400d80 <close@plt>
  422db2:	0f b6 03             	movzbl (%rbx),%eax
  422db5:	83 e8 4f             	sub    $0x4f,%eax
  422db8:	75 18                	jne    422dd2 <submitr+0x6db>
  422dba:	0f b6 53 01          	movzbl 0x1(%rbx),%edx
  422dbe:	83 ea 4b             	sub    $0x4b,%edx
  422dc1:	75 11                	jne    422dd4 <submitr+0x6dd>
  422dc3:	0f b6 53 02          	movzbl 0x2(%rbx),%edx
  422dc7:	83 ea 0a             	sub    $0xa,%edx
  422dca:	75 08                	jne    422dd4 <submitr+0x6dd>
  422dcc:	0f b6 53 03          	movzbl 0x3(%rbx),%edx
  422dd0:	eb 02                	jmp    422dd4 <submitr+0x6dd>
  422dd2:	89 c2                	mov    %eax,%edx
  422dd4:	85 d2                	test   %edx,%edx
  422dd6:	74 30                	je     422e08 <submitr+0x711>
  422dd8:	bf 1d 3d 42 00       	mov    $0x423d1d,%edi
  422ddd:	b9 05 00 00 00       	mov    $0x5,%ecx
  422de2:	48 89 de             	mov    %rbx,%rsi
  422de5:	f3 a6                	repz cmpsb %es:(%rdi),%ds:(%rsi)
  422de7:	0f 97 c1             	seta   %cl
  422dea:	0f 92 c2             	setb   %dl
  422ded:	38 d1                	cmp    %dl,%cl
  422def:	74 1e                	je     422e0f <submitr+0x718>
  422df1:	85 c0                	test   %eax,%eax
  422df3:	75 0d                	jne    422e02 <submitr+0x70b>
  422df5:	0f b6 43 01          	movzbl 0x1(%rbx),%eax
  422df9:	83 e8 4b             	sub    $0x4b,%eax
  422dfc:	75 04                	jne    422e02 <submitr+0x70b>
  422dfe:	0f b6 43 02          	movzbl 0x2(%rbx),%eax
  422e02:	85 c0                	test   %eax,%eax
  422e04:	75 10                	jne    422e16 <submitr+0x71f>
  422e06:	eb 13                	jmp    422e1b <submitr+0x724>
  422e08:	b8 00 00 00 00       	mov    $0x0,%eax
  422e0d:	eb 0c                	jmp    422e1b <submitr+0x724>
  422e0f:	b8 00 00 00 00       	mov    $0x0,%eax
  422e14:	eb 05                	jmp    422e1b <submitr+0x724>
  422e16:	b8 ff ff ff ff       	mov    $0xffffffff,%eax
  422e1b:	48 81 c4 58 a0 00 00 	add    $0xa058,%rsp
  422e22:	5b                   	pop    %rbx
  422e23:	5d                   	pop    %rbp
  422e24:	41 5c                	pop    %r12
  422e26:	41 5d                	pop    %r13
  422e28:	41 5e                	pop    %r14
  422e2a:	41 5f                	pop    %r15
  422e2c:	c3                   	retq   

0000000000422e2d <init_timeout>:
  422e2d:	53                   	push   %rbx
  422e2e:	89 fb                	mov    %edi,%ebx
  422e30:	85 ff                	test   %edi,%edi
  422e32:	74 1f                	je     422e53 <init_timeout+0x26>
  422e34:	85 ff                	test   %edi,%edi
  422e36:	79 05                	jns    422e3d <init_timeout+0x10>
  422e38:	bb 00 00 00 00       	mov    $0x0,%ebx
  422e3d:	be 92 24 42 00       	mov    $0x422492,%esi
  422e42:	bf 0e 00 00 00       	mov    $0xe,%edi
  422e47:	e8 84 e0 fd ff       	callq  400ed0 <signal@plt>
  422e4c:	89 df                	mov    %ebx,%edi
  422e4e:	e8 9d e0 fd ff       	callq  400ef0 <alarm@plt>
  422e53:	5b                   	pop    %rbx
  422e54:	c3                   	retq   

0000000000422e55 <init_driver>:
  422e55:	55                   	push   %rbp
  422e56:	53                   	push   %rbx
  422e57:	48 83 ec 18          	sub    $0x18,%rsp
  422e5b:	48 89 fd             	mov    %rdi,%rbp
  422e5e:	be 01 00 00 00       	mov    $0x1,%esi
  422e63:	bf 0d 00 00 00       	mov    $0xd,%edi
  422e68:	e8 63 e0 fd ff       	callq  400ed0 <signal@plt>
  422e6d:	be 01 00 00 00       	mov    $0x1,%esi
  422e72:	bf 1d 00 00 00       	mov    $0x1d,%edi
  422e77:	e8 54 e0 fd ff       	callq  400ed0 <signal@plt>
  422e7c:	be 01 00 00 00       	mov    $0x1,%esi
  422e81:	bf 1d 00 00 00       	mov    $0x1d,%edi
  422e86:	e8 45 e0 fd ff       	callq  400ed0 <signal@plt>
  422e8b:	ba 00 00 00 00       	mov    $0x0,%edx
  422e90:	be 01 00 00 00       	mov    $0x1,%esi
  422e95:	bf 02 00 00 00       	mov    $0x2,%edi
  422e9a:	e8 41 e0 fd ff       	callq  400ee0 <socket@plt>
  422e9f:	89 c3                	mov    %eax,%ebx
  422ea1:	85 c0                	test   %eax,%eax
  422ea3:	79 4f                	jns    422ef4 <init_driver+0x9f>
  422ea5:	48 b8 45 72 72 6f 72 	movabs $0x43203a726f727245,%rax
  422eac:	3a 20 43 
  422eaf:	48 89 45 00          	mov    %rax,0x0(%rbp)
  422eb3:	48 b8 6c 69 65 6e 74 	movabs $0x6e7520746e65696c,%rax
  422eba:	20 75 6e 
  422ebd:	48 89 45 08          	mov    %rax,0x8(%rbp)
  422ec1:	48 b8 61 62 6c 65 20 	movabs $0x206f7420656c6261,%rax
  422ec8:	74 6f 20 
  422ecb:	48 89 45 10          	mov    %rax,0x10(%rbp)
  422ecf:	48 b8 63 72 65 61 74 	movabs $0x7320657461657263,%rax
  422ed6:	65 20 73 
  422ed9:	48 89 45 18          	mov    %rax,0x18(%rbp)
  422edd:	c7 45 20 6f 63 6b 65 	movl   $0x656b636f,0x20(%rbp)
  422ee4:	66 c7 45 24 74 00    	movw   $0x74,0x24(%rbp)
  422eea:	b8 ff ff ff ff       	mov    $0xffffffff,%eax
  422eef:	e9 23 01 00 00       	jmpq   423017 <init_driver+0x1c2>
  422ef4:	bf 22 3d 42 00       	mov    $0x423d22,%edi
  422ef9:	e8 92 de fd ff       	callq  400d90 <gethostbyname@plt>
  422efe:	48 85 c0             	test   %rax,%rax
  422f01:	75 68                	jne    422f6b <init_driver+0x116>
  422f03:	48 b8 45 72 72 6f 72 	movabs $0x44203a726f727245,%rax
  422f0a:	3a 20 44 
  422f0d:	48 89 45 00          	mov    %rax,0x0(%rbp)
  422f11:	48 b8 4e 53 20 69 73 	movabs $0x6e7520736920534e,%rax
  422f18:	20 75 6e 
  422f1b:	48 89 45 08          	mov    %rax,0x8(%rbp)
  422f1f:	48 b8 61 62 6c 65 20 	movabs $0x206f7420656c6261,%rax
  422f26:	74 6f 20 
  422f29:	48 89 45 10          	mov    %rax,0x10(%rbp)
  422f2d:	48 b8 72 65 73 6f 6c 	movabs $0x2065766c6f736572,%rax
  422f34:	76 65 20 
  422f37:	48 89 45 18          	mov    %rax,0x18(%rbp)
  422f3b:	48 b8 73 65 72 76 65 	movabs $0x6120726576726573,%rax
  422f42:	72 20 61 
  422f45:	48 89 45 20          	mov    %rax,0x20(%rbp)
  422f49:	c7 45 28 64 64 72 65 	movl   $0x65726464,0x28(%rbp)
  422f50:	66 c7 45 2c 73 73    	movw   $0x7373,0x2c(%rbp)
  422f56:	c6 45 2e 00          	movb   $0x0,0x2e(%rbp)
  422f5a:	89 df                	mov    %ebx,%edi
  422f5c:	e8 1f de fd ff       	callq  400d80 <close@plt>
  422f61:	b8 ff ff ff ff       	mov    $0xffffffff,%eax
  422f66:	e9 ac 00 00 00       	jmpq   423017 <init_driver+0x1c2>
  422f6b:	48 c7 04 24 00 00 00 	movq   $0x0,(%rsp)
  422f72:	00 
  422f73:	48 c7 44 24 08 00 00 	movq   $0x0,0x8(%rsp)
  422f7a:	00 00 
  422f7c:	66 c7 04 24 02 00    	movw   $0x2,(%rsp)
  422f82:	48 8b 48 18          	mov    0x18(%rax),%rcx
  422f86:	48 63 50 14          	movslq 0x14(%rax),%rdx
  422f8a:	48 8d 74 24 04       	lea    0x4(%rsp),%rsi
  422f8f:	48 8b 39             	mov    (%rcx),%rdi
  422f92:	e8 d9 de fd ff       	callq  400e70 <bcopy@plt>
  422f97:	66 c7 44 24 02 00 50 	movw   $0x5000,0x2(%rsp)
  422f9e:	ba 10 00 00 00       	mov    $0x10,%edx
  422fa3:	48 89 e6             	mov    %rsp,%rsi
  422fa6:	89 df                	mov    %ebx,%edi
  422fa8:	e8 03 df fd ff       	callq  400eb0 <connect@plt>
  422fad:	85 c0                	test   %eax,%eax
  422faf:	79 50                	jns    423001 <init_driver+0x1ac>
  422fb1:	48 b8 45 72 72 6f 72 	movabs $0x55203a726f727245,%rax
  422fb8:	3a 20 55 
  422fbb:	48 89 45 00          	mov    %rax,0x0(%rbp)
  422fbf:	48 b8 6e 61 62 6c 65 	movabs $0x6f7420656c62616e,%rax
  422fc6:	20 74 6f 
  422fc9:	48 89 45 08          	mov    %rax,0x8(%rbp)
  422fcd:	48 b8 20 63 6f 6e 6e 	movabs $0x7463656e6e6f6320,%rax
  422fd4:	65 63 74 
  422fd7:	48 89 45 10          	mov    %rax,0x10(%rbp)
  422fdb:	48 b8 20 74 6f 20 73 	movabs $0x76726573206f7420,%rax
  422fe2:	65 72 76 
  422fe5:	48 89 45 18          	mov    %rax,0x18(%rbp)
  422fe9:	66 c7 45 20 65 72    	movw   $0x7265,0x20(%rbp)
  422fef:	c6 45 22 00          	movb   $0x0,0x22(%rbp)
  422ff3:	89 df                	mov    %ebx,%edi
  422ff5:	e8 86 dd fd ff       	callq  400d80 <close@plt>
  422ffa:	b8 ff ff ff ff       	mov    $0xffffffff,%eax
  422fff:	eb 16                	jmp    423017 <init_driver+0x1c2>
  423001:	89 df                	mov    %ebx,%edi
  423003:	e8 78 dd fd ff       	callq  400d80 <close@plt>
  423008:	66 c7 45 00 4f 4b    	movw   $0x4b4f,0x0(%rbp)
  42300e:	c6 45 02 00          	movb   $0x0,0x2(%rbp)
  423012:	b8 00 00 00 00       	mov    $0x0,%eax
  423017:	48 83 c4 18          	add    $0x18,%rsp
  42301b:	5b                   	pop    %rbx
  42301c:	5d                   	pop    %rbp
  42301d:	c3                   	retq   

000000000042301e <driver_post>:
  42301e:	53                   	push   %rbx
  42301f:	48 83 ec 10          	sub    $0x10,%rsp
  423023:	4c 89 cb             	mov    %r9,%rbx
  423026:	45 85 c0             	test   %r8d,%r8d
  423029:	74 22                	je     42304d <driver_post+0x2f>
  42302b:	48 89 ce             	mov    %rcx,%rsi
  42302e:	bf 39 3d 42 00       	mov    $0x423d39,%edi
  423033:	b8 00 00 00 00       	mov    $0x0,%eax
  423038:	e8 23 dd fd ff       	callq  400d60 <printf@plt>
  42303d:	66 c7 03 4f 4b       	movw   $0x4b4f,(%rbx)
  423042:	c6 43 02 00          	movb   $0x0,0x2(%rbx)
  423046:	b8 00 00 00 00       	mov    $0x0,%eax
  42304b:	eb 39                	jmp    423086 <driver_post+0x68>
  42304d:	48 85 ff             	test   %rdi,%rdi
  423050:	74 26                	je     423078 <driver_post+0x5a>
  423052:	80 3f 00             	cmpb   $0x0,(%rdi)
  423055:	74 21                	je     423078 <driver_post+0x5a>
  423057:	4c 89 0c 24          	mov    %r9,(%rsp)
  42305b:	49 89 c9             	mov    %rcx,%r9
  42305e:	49 89 d0             	mov    %rdx,%r8
  423061:	48 89 f9             	mov    %rdi,%rcx
  423064:	48 89 f2             	mov    %rsi,%rdx
  423067:	be 50 00 00 00       	mov    $0x50,%esi
  42306c:	bf 22 3d 42 00       	mov    $0x423d22,%edi
  423071:	e8 81 f6 ff ff       	callq  4226f7 <submitr>
  423076:	eb 0e                	jmp    423086 <driver_post+0x68>
  423078:	66 c7 03 4f 4b       	movw   $0x4b4f,(%rbx)
  42307d:	c6 43 02 00          	movb   $0x0,0x2(%rbx)
  423081:	b8 00 00 00 00       	mov    $0x0,%eax
  423086:	48 83 c4 10          	add    $0x10,%rsp
  42308a:	5b                   	pop    %rbx
  42308b:	c3                   	retq   

000000000042308c <check>:
  42308c:	89 f8                	mov    %edi,%eax
  42308e:	c1 e8 1c             	shr    $0x1c,%eax
  423091:	85 c0                	test   %eax,%eax
  423093:	74 1d                	je     4230b2 <check+0x26>
  423095:	b9 00 00 00 00       	mov    $0x0,%ecx
  42309a:	eb 0b                	jmp    4230a7 <check+0x1b>
  42309c:	89 f8                	mov    %edi,%eax
  42309e:	d3 e8                	shr    %cl,%eax
  4230a0:	3c 0a                	cmp    $0xa,%al
  4230a2:	74 14                	je     4230b8 <check+0x2c>
  4230a4:	83 c1 08             	add    $0x8,%ecx
  4230a7:	83 f9 1f             	cmp    $0x1f,%ecx
  4230aa:	7e f0                	jle    42309c <check+0x10>
  4230ac:	b8 01 00 00 00       	mov    $0x1,%eax
  4230b1:	c3                   	retq   
  4230b2:	b8 00 00 00 00       	mov    $0x0,%eax
  4230b7:	c3                   	retq   
  4230b8:	b8 00 00 00 00       	mov    $0x0,%eax
  4230bd:	c3                   	retq   

00000000004230be <gencookie>:
  4230be:	53                   	push   %rbx
  4230bf:	83 c7 01             	add    $0x1,%edi
  4230c2:	e8 79 dd fd ff       	callq  400e40 <srandom@plt>
  4230c7:	e8 74 de fd ff       	callq  400f40 <random@plt>
  4230cc:	89 c3                	mov    %eax,%ebx
  4230ce:	89 c7                	mov    %eax,%edi
  4230d0:	e8 b7 ff ff ff       	callq  42308c <check>
  4230d5:	85 c0                	test   %eax,%eax
  4230d7:	74 ee                	je     4230c7 <gencookie+0x9>
  4230d9:	89 d8                	mov    %ebx,%eax
  4230db:	5b                   	pop    %rbx
  4230dc:	c3                   	retq   

00000000004230dd <checkhash>:
  4230dd:	53                   	push   %rbx
  4230de:	48 81 ec f0 00 00 00 	sub    $0xf0,%rsp
  4230e5:	48 b8 73 32 30 2d 31 	movabs $0x313235312d303273,%rax
  4230ec:	35 32 31 
  4230ef:	48 89 84 24 e0 00 00 	mov    %rax,0xe0(%rsp)
  4230f6:	00 
  4230f7:	66 c7 84 24 e8 00 00 	movw   $0x33,0xe8(%rsp)
  4230fe:	00 33 00 
  423101:	48 b8 61 74 74 61 63 	movabs $0x616c6b6361747461,%rax
  423108:	6b 6c 61 
  42310b:	48 89 84 24 d0 00 00 	mov    %rax,0xd0(%rsp)
  423112:	00 
  423113:	66 c7 84 24 d8 00 00 	movw   $0x62,0xd8(%rsp)
  42311a:	00 62 00 
  42311d:	48 b8 42 4f 4f 47 41 	movabs $0x4f4f4241474f4f42,%rax
  423124:	42 4f 4f 
  423127:	48 89 84 24 c0 00 00 	mov    %rax,0xc0(%rsp)
  42312e:	00 
  42312f:	66 c7 84 24 c8 00 00 	movw   $0x4147,0xc8(%rsp)
  423136:	00 47 41 
  423139:	c6 84 24 ca 00 00 00 	movb   $0x0,0xca(%rsp)
  423140:	00 
  423141:	48 b8 6b 65 79 2e 74 	movabs $0x7478742e79656b,%rax
  423148:	78 74 00 
  42314b:	48 89 84 24 b0 00 00 	mov    %rax,0xb0(%rsp)
  423152:	00 
  423153:	be 05 3a 42 00       	mov    $0x423a05,%esi
  423158:	48 8d bc 24 b0 00 00 	lea    0xb0(%rsp),%rdi
  42315f:	00 
  423160:	e8 bb dc fd ff       	callq  400e20 <fopen@plt>
  423165:	48 89 c3             	mov    %rax,%rbx
  423168:	48 85 c0             	test   %rax,%rax
  42316b:	75 21                	jne    42318e <checkhash+0xb1>
  42316d:	48 8d b4 24 b0 00 00 	lea    0xb0(%rsp),%rsi
  423174:	00 
  423175:	bf 58 3d 42 00       	mov    $0x423d58,%edi
  42317a:	b8 00 00 00 00       	mov    $0x0,%eax
  42317f:	e8 dc db fd ff       	callq  400d60 <printf@plt>
  423184:	bf 01 00 00 00       	mov    $0x1,%edi
  423189:	e8 42 dc fd ff       	callq  400dd0 <exit@plt>
  42318e:	48 89 c2             	mov    %rax,%rdx
  423191:	be 0a 00 00 00       	mov    $0xa,%esi
  423196:	48 8d bc 24 a0 00 00 	lea    0xa0(%rsp),%rdi
  42319d:	00 
  42319e:	e8 ad dc fd ff       	callq  400e50 <fgets@plt>
  4231a3:	48 85 c0             	test   %rax,%rax
  4231a6:	75 1c                	jne    4231c4 <checkhash+0xe7>
  4231a8:	48 8d b4 24 b0 00 00 	lea    0xb0(%rsp),%rsi
  4231af:	00 
  4231b0:	bf 90 3d 42 00       	mov    $0x423d90,%edi
  4231b5:	e8 a6 db fd ff       	callq  400d60 <printf@plt>
  4231ba:	bf 01 00 00 00       	mov    $0x1,%edi
  4231bf:	e8 0c dc fd ff       	callq  400dd0 <exit@plt>
  4231c4:	48 8d bc 24 a0 00 00 	lea    0xa0(%rsp),%rdi
  4231cb:	00 
  4231cc:	b8 00 00 00 00       	mov    $0x0,%eax
  4231d1:	48 c7 c1 ff ff ff ff 	mov    $0xffffffffffffffff,%rcx
  4231d8:	f2 ae                	repnz scas %es:(%rdi),%al
  4231da:	48 f7 d1             	not    %rcx
  4231dd:	48 83 e9 02          	sub    $0x2,%rcx
  4231e1:	80 bc 0c a0 00 00 00 	cmpb   $0xa,0xa0(%rsp,%rcx,1)
  4231e8:	0a 
  4231e9:	75 08                	jne    4231f3 <checkhash+0x116>
  4231eb:	c6 84 0c a0 00 00 00 	movb   $0x0,0xa0(%rsp,%rcx,1)
  4231f2:	00 
  4231f3:	48 89 da             	mov    %rbx,%rdx
  4231f6:	be 21 00 00 00       	mov    $0x21,%esi
  4231fb:	48 89 e7             	mov    %rsp,%rdi
  4231fe:	e8 4d dc fd ff       	callq  400e50 <fgets@plt>
  423203:	48 85 c0             	test   %rax,%rax
  423206:	75 1c                	jne    423224 <checkhash+0x147>
  423208:	48 8d b4 24 b0 00 00 	lea    0xb0(%rsp),%rsi
  42320f:	00 
  423210:	bf b8 3d 42 00       	mov    $0x423db8,%edi
  423215:	e8 46 db fd ff       	callq  400d60 <printf@plt>
  42321a:	bf 01 00 00 00       	mov    $0x1,%edi
  42321f:	e8 ac db fd ff       	callq  400dd0 <exit@plt>
  423224:	48 89 e7             	mov    %rsp,%rdi
  423227:	b8 00 00 00 00       	mov    $0x0,%eax
  42322c:	48 c7 c1 ff ff ff ff 	mov    $0xffffffffffffffff,%rcx
  423233:	f2 ae                	repnz scas %es:(%rdi),%al
  423235:	48 f7 d1             	not    %rcx
  423238:	48 83 e9 02          	sub    $0x2,%rcx
  42323c:	80 3c 0c 0a          	cmpb   $0xa,(%rsp,%rcx,1)
  423240:	75 04                	jne    423246 <checkhash+0x169>
  423242:	c6 04 0c 00          	movb   $0x0,(%rsp,%rcx,1)
  423246:	c6 44 24 60 00       	movb   $0x0,0x60(%rsp)
  42324b:	48 8d b4 24 e0 00 00 	lea    0xe0(%rsp),%rsi
  423252:	00 
  423253:	48 8d 7c 24 60       	lea    0x60(%rsp),%rdi
  423258:	e8 33 dc fd ff       	callq  400e90 <strcat@plt>
  42325d:	48 8d b4 24 d0 00 00 	lea    0xd0(%rsp),%rsi
  423264:	00 
  423265:	48 8d 7c 24 60       	lea    0x60(%rsp),%rdi
  42326a:	e8 21 dc fd ff       	callq  400e90 <strcat@plt>
  42326f:	48 8d b4 24 a0 00 00 	lea    0xa0(%rsp),%rsi
  423276:	00 
  423277:	48 8d 7c 24 60       	lea    0x60(%rsp),%rdi
  42327c:	e8 0f dc fd ff       	callq  400e90 <strcat@plt>
  423281:	48 8d b4 24 c0 00 00 	lea    0xc0(%rsp),%rsi
  423288:	00 
  423289:	48 8d 7c 24 60       	lea    0x60(%rsp),%rdi
  42328e:	e8 fd db fd ff       	callq  400e90 <strcat@plt>
  423293:	48 8d 7c 24 60       	lea    0x60(%rsp),%rdi
  423298:	b8 00 00 00 00       	mov    $0x0,%eax
  42329d:	48 c7 c1 ff ff ff ff 	mov    $0xffffffffffffffff,%rcx
  4232a4:	f2 ae                	repnz scas %es:(%rdi),%al
  4232a6:	48 f7 d1             	not    %rcx
  4232a9:	48 8d 71 ff          	lea    -0x1(%rcx),%rsi
  4232ad:	48 8d 94 24 90 00 00 	lea    0x90(%rsp),%rdx
  4232b4:	00 
  4232b5:	48 8d 7c 24 60       	lea    0x60(%rsp),%rdi
  4232ba:	e8 91 da fd ff       	callq  400d50 <MD5@plt>
  4232bf:	bb 00 00 00 00       	mov    $0x0,%ebx
  4232c4:	eb 43                	jmp    423309 <checkhash+0x22c>
  4232c6:	48 63 c3             	movslq %ebx,%rax
  4232c9:	8d 3c 1b             	lea    (%rbx,%rbx,1),%edi
  4232cc:	0f b6 94 04 90 00 00 	movzbl 0x90(%rsp,%rax,1),%edx
  4232d3:	00 
  4232d4:	48 63 ff             	movslq %edi,%rdi
  4232d7:	48 8d 44 24 30       	lea    0x30(%rsp),%rax
  4232dc:	48 01 c7             	add    %rax,%rdi
  4232df:	be 50 3d 42 00       	mov    $0x423d50,%esi
  4232e4:	b8 00 00 00 00       	mov    $0x0,%eax
  4232e9:	e8 92 db fd ff       	callq  400e80 <sprintf@plt>
  4232ee:	85 c0                	test   %eax,%eax
  4232f0:	79 14                	jns    423306 <checkhash+0x229>
  4232f2:	bf e0 3d 42 00       	mov    $0x423de0,%edi
  4232f7:	e8 b4 da fd ff       	callq  400db0 <puts@plt>
  4232fc:	bf 01 00 00 00       	mov    $0x1,%edi
  423301:	e8 ca da fd ff       	callq  400dd0 <exit@plt>
  423306:	83 c3 01             	add    $0x1,%ebx
  423309:	83 fb 0f             	cmp    $0xf,%ebx
  42330c:	76 b8                	jbe    4232c6 <checkhash+0x1e9>
  42330e:	48 89 e6             	mov    %rsp,%rsi
  423311:	48 8d 7c 24 30       	lea    0x30(%rsp),%rdi
  423316:	e8 f5 db fd ff       	callq  400f10 <strcmp@plt>
  42331b:	85 c0                	test   %eax,%eax
  42331d:	75 04                	jne    423323 <checkhash+0x246>
  42331f:	b0 01                	mov    $0x1,%al
  423321:	eb 05                	jmp    423328 <checkhash+0x24b>
  423323:	b8 00 00 00 00       	mov    $0x0,%eax
  423328:	48 81 c4 f0 00 00 00 	add    $0xf0,%rsp
  42332f:	5b                   	pop    %rbx
  423330:	c3                   	retq   
  423331:	66 2e 0f 1f 84 00 00 	nopw   %cs:0x0(%rax,%rax,1)
  423338:	00 00 00 
  42333b:	0f 1f 44 00 00       	nopl   0x0(%rax,%rax,1)

0000000000423340 <__libc_csu_init>:
  423340:	41 57                	push   %r15
  423342:	41 89 ff             	mov    %edi,%r15d
  423345:	41 56                	push   %r14
  423347:	49 89 f6             	mov    %rsi,%r14
  42334a:	41 55                	push   %r13
  42334c:	49 89 d5             	mov    %rdx,%r13
  42334f:	41 54                	push   %r12
  423351:	4c 8d 25 a8 1a 20 00 	lea    0x201aa8(%rip),%r12        # 624e00 <__frame_dummy_init_array_entry>
  423358:	55                   	push   %rbp
  423359:	48 8d 2d a8 1a 20 00 	lea    0x201aa8(%rip),%rbp        # 624e08 <__init_array_end>
  423360:	53                   	push   %rbx
  423361:	4c 29 e5             	sub    %r12,%rbp
  423364:	31 db                	xor    %ebx,%ebx
  423366:	48 c1 fd 03          	sar    $0x3,%rbp
  42336a:	48 83 ec 08          	sub    $0x8,%rsp
  42336e:	e8 ad d9 fd ff       	callq  400d20 <_init>
  423373:	48 85 ed             	test   %rbp,%rbp
  423376:	74 1e                	je     423396 <__libc_csu_init+0x56>
  423378:	0f 1f 84 00 00 00 00 	nopl   0x0(%rax,%rax,1)
  42337f:	00 
  423380:	4c 89 ea             	mov    %r13,%rdx
  423383:	4c 89 f6             	mov    %r14,%rsi
  423386:	44 89 ff             	mov    %r15d,%edi
  423389:	41 ff 14 dc          	callq  *(%r12,%rbx,8)
  42338d:	48 83 c3 01          	add    $0x1,%rbx
  423391:	48 39 eb             	cmp    %rbp,%rbx
  423394:	75 ea                	jne    423380 <__libc_csu_init+0x40>
  423396:	48 83 c4 08          	add    $0x8,%rsp
  42339a:	5b                   	pop    %rbx
  42339b:	5d                   	pop    %rbp
  42339c:	41 5c                	pop    %r12
  42339e:	41 5d                	pop    %r13
  4233a0:	41 5e                	pop    %r14
  4233a2:	41 5f                	pop    %r15
  4233a4:	c3                   	retq   
  4233a5:	90                   	nop
  4233a6:	66 2e 0f 1f 84 00 00 	nopw   %cs:0x0(%rax,%rax,1)
  4233ad:	00 00 00 

00000000004233b0 <__libc_csu_fini>:
  4233b0:	f3 c3                	repz retq 

Disassembly of section .init:

0000000000400d20 <_init>:
  400d20:	48 83 ec 08          	sub    $0x8,%rsp
  400d24:	48 8b 05 cd 42 22 00 	mov    0x2242cd(%rip),%rax        # 624ff8 <__gmon_start__>
  400d2b:	48 85 c0             	test   %rax,%rax
  400d2e:	74 05                	je     400d35 <_init+0x15>
  400d30:	e8 6b 00 00 00       	callq  400da0 <__gmon_start__@plt>
  400d35:	48 83 c4 08          	add    $0x8,%rsp
  400d39:	c3                   	retq   

Disassembly of section .plt:

0000000000400d40 <.plt>:
  400d40:	ff 35 c2 42 22 00    	pushq  0x2242c2(%rip)        # 625008 <_GLOBAL_OFFSET_TABLE_+0x8>
  400d46:	ff 25 c4 42 22 00    	jmpq   *0x2242c4(%rip)        # 625010 <_GLOBAL_OFFSET_TABLE_+0x10>
  400d4c:	0f 1f 40 00          	nopl   0x0(%rax)

0000000000400d50 <MD5@plt>:
  400d50:	ff 25 c2 42 22 00    	jmpq   *0x2242c2(%rip)        # 625018 <MD5@libcrypto.so.10>
  400d56:	68 00 00 00 00       	pushq  $0x0
  400d5b:	e9 e0 ff ff ff       	jmpq   400d40 <.plt>

0000000000400d60 <printf@plt>:
  400d60:	ff 25 ba 42 22 00    	jmpq   *0x2242ba(%rip)        # 625020 <printf@GLIBC_2.2.5>
  400d66:	68 01 00 00 00       	pushq  $0x1
  400d6b:	e9 d0 ff ff ff       	jmpq   400d40 <.plt>

0000000000400d70 <memset@plt>:
  400d70:	ff 25 b2 42 22 00    	jmpq   *0x2242b2(%rip)        # 625028 <memset@GLIBC_2.2.5>
  400d76:	68 02 00 00 00       	pushq  $0x2
  400d7b:	e9 c0 ff ff ff       	jmpq   400d40 <.plt>

0000000000400d80 <close@plt>:
  400d80:	ff 25 aa 42 22 00    	jmpq   *0x2242aa(%rip)        # 625030 <close@GLIBC_2.2.5>
  400d86:	68 03 00 00 00       	pushq  $0x3
  400d8b:	e9 b0 ff ff ff       	jmpq   400d40 <.plt>

0000000000400d90 <gethostbyname@plt>:
  400d90:	ff 25 a2 42 22 00    	jmpq   *0x2242a2(%rip)        # 625038 <gethostbyname@GLIBC_2.2.5>
  400d96:	68 04 00 00 00       	pushq  $0x4
  400d9b:	e9 a0 ff ff ff       	jmpq   400d40 <.plt>

0000000000400da0 <__gmon_start__@plt>:
  400da0:	ff 25 9a 42 22 00    	jmpq   *0x22429a(%rip)        # 625040 <__gmon_start__>
  400da6:	68 05 00 00 00       	pushq  $0x5
  400dab:	e9 90 ff ff ff       	jmpq   400d40 <.plt>

0000000000400db0 <puts@plt>:
  400db0:	ff 25 92 42 22 00    	jmpq   *0x224292(%rip)        # 625048 <puts@GLIBC_2.2.5>
  400db6:	68 06 00 00 00       	pushq  $0x6
  400dbb:	e9 80 ff ff ff       	jmpq   400d40 <.plt>

0000000000400dc0 <__isoc99_sscanf@plt>:
  400dc0:	ff 25 8a 42 22 00    	jmpq   *0x22428a(%rip)        # 625050 <__isoc99_sscanf@GLIBC_2.7>
  400dc6:	68 07 00 00 00       	pushq  $0x7
  400dcb:	e9 70 ff ff ff       	jmpq   400d40 <.plt>

0000000000400dd0 <exit@plt>:
  400dd0:	ff 25 82 42 22 00    	jmpq   *0x224282(%rip)        # 625058 <exit@GLIBC_2.2.5>
  400dd6:	68 08 00 00 00       	pushq  $0x8
  400ddb:	e9 60 ff ff ff       	jmpq   400d40 <.plt>

0000000000400de0 <strcasecmp@plt>:
  400de0:	ff 25 7a 42 22 00    	jmpq   *0x22427a(%rip)        # 625060 <strcasecmp@GLIBC_2.2.5>
  400de6:	68 09 00 00 00       	pushq  $0x9
  400deb:	e9 50 ff ff ff       	jmpq   400d40 <.plt>

0000000000400df0 <getopt@plt>:
  400df0:	ff 25 72 42 22 00    	jmpq   *0x224272(%rip)        # 625068 <getopt@GLIBC_2.2.5>
  400df6:	68 0a 00 00 00       	pushq  $0xa
  400dfb:	e9 40 ff ff ff       	jmpq   400d40 <.plt>

0000000000400e00 <read@plt>:
  400e00:	ff 25 6a 42 22 00    	jmpq   *0x22426a(%rip)        # 625070 <read@GLIBC_2.2.5>
  400e06:	68 0b 00 00 00       	pushq  $0xb
  400e0b:	e9 30 ff ff ff       	jmpq   400d40 <.plt>

0000000000400e10 <strncmp@plt>:
  400e10:	ff 25 62 42 22 00    	jmpq   *0x224262(%rip)        # 625078 <strncmp@GLIBC_2.2.5>
  400e16:	68 0c 00 00 00       	pushq  $0xc
  400e1b:	e9 20 ff ff ff       	jmpq   400d40 <.plt>

0000000000400e20 <fopen@plt>:
  400e20:	ff 25 5a 42 22 00    	jmpq   *0x22425a(%rip)        # 625080 <fopen@GLIBC_2.2.5>
  400e26:	68 0d 00 00 00       	pushq  $0xd
  400e2b:	e9 10 ff ff ff       	jmpq   400d40 <.plt>

0000000000400e30 <__libc_start_main@plt>:
  400e30:	ff 25 52 42 22 00    	jmpq   *0x224252(%rip)        # 625088 <__libc_start_main@GLIBC_2.2.5>
  400e36:	68 0e 00 00 00       	pushq  $0xe
  400e3b:	e9 00 ff ff ff       	jmpq   400d40 <.plt>

0000000000400e40 <srandom@plt>:
  400e40:	ff 25 4a 42 22 00    	jmpq   *0x22424a(%rip)        # 625090 <srandom@GLIBC_2.2.5>
  400e46:	68 0f 00 00 00       	pushq  $0xf
  400e4b:	e9 f0 fe ff ff       	jmpq   400d40 <.plt>

0000000000400e50 <fgets@plt>:
  400e50:	ff 25 42 42 22 00    	jmpq   *0x224242(%rip)        # 625098 <fgets@GLIBC_2.2.5>
  400e56:	68 10 00 00 00       	pushq  $0x10
  400e5b:	e9 e0 fe ff ff       	jmpq   400d40 <.plt>

0000000000400e60 <_IO_getc@plt>:
  400e60:	ff 25 3a 42 22 00    	jmpq   *0x22423a(%rip)        # 6250a0 <_IO_getc@GLIBC_2.2.5>
  400e66:	68 11 00 00 00       	pushq  $0x11
  400e6b:	e9 d0 fe ff ff       	jmpq   400d40 <.plt>

0000000000400e70 <bcopy@plt>:
  400e70:	ff 25 32 42 22 00    	jmpq   *0x224232(%rip)        # 6250a8 <bcopy@GLIBC_2.2.5>
  400e76:	68 12 00 00 00       	pushq  $0x12
  400e7b:	e9 c0 fe ff ff       	jmpq   400d40 <.plt>

0000000000400e80 <sprintf@plt>:
  400e80:	ff 25 2a 42 22 00    	jmpq   *0x22422a(%rip)        # 6250b0 <sprintf@GLIBC_2.2.5>
  400e86:	68 13 00 00 00       	pushq  $0x13
  400e8b:	e9 b0 fe ff ff       	jmpq   400d40 <.plt>

0000000000400e90 <strcat@plt>:
  400e90:	ff 25 22 42 22 00    	jmpq   *0x224222(%rip)        # 6250b8 <strcat@GLIBC_2.2.5>
  400e96:	68 14 00 00 00       	pushq  $0x14
  400e9b:	e9 a0 fe ff ff       	jmpq   400d40 <.plt>

0000000000400ea0 <strtol@plt>:
  400ea0:	ff 25 1a 42 22 00    	jmpq   *0x22421a(%rip)        # 6250c0 <strtol@GLIBC_2.2.5>
  400ea6:	68 15 00 00 00       	pushq  $0x15
  400eab:	e9 90 fe ff ff       	jmpq   400d40 <.plt>

0000000000400eb0 <connect@plt>:
  400eb0:	ff 25 12 42 22 00    	jmpq   *0x224212(%rip)        # 6250c8 <connect@GLIBC_2.2.5>
  400eb6:	68 16 00 00 00       	pushq  $0x16
  400ebb:	e9 80 fe ff ff       	jmpq   400d40 <.plt>

0000000000400ec0 <gethostname@plt>:
  400ec0:	ff 25 0a 42 22 00    	jmpq   *0x22420a(%rip)        # 6250d0 <gethostname@GLIBC_2.2.5>
  400ec6:	68 17 00 00 00       	pushq  $0x17
  400ecb:	e9 70 fe ff ff       	jmpq   400d40 <.plt>

0000000000400ed0 <signal@plt>:
  400ed0:	ff 25 02 42 22 00    	jmpq   *0x224202(%rip)        # 6250d8 <signal@GLIBC_2.2.5>
  400ed6:	68 18 00 00 00       	pushq  $0x18
  400edb:	e9 60 fe ff ff       	jmpq   400d40 <.plt>

0000000000400ee0 <socket@plt>:
  400ee0:	ff 25 fa 41 22 00    	jmpq   *0x2241fa(%rip)        # 6250e0 <socket@GLIBC_2.2.5>
  400ee6:	68 19 00 00 00       	pushq  $0x19
  400eeb:	e9 50 fe ff ff       	jmpq   400d40 <.plt>

0000000000400ef0 <alarm@plt>:
  400ef0:	ff 25 f2 41 22 00    	jmpq   *0x2241f2(%rip)        # 6250e8 <alarm@GLIBC_2.2.5>
  400ef6:	68 1a 00 00 00       	pushq  $0x1a
  400efb:	e9 40 fe ff ff       	jmpq   400d40 <.plt>

0000000000400f00 <__errno_location@plt>:
  400f00:	ff 25 ea 41 22 00    	jmpq   *0x2241ea(%rip)        # 6250f0 <__errno_location@GLIBC_2.2.5>
  400f06:	68 1b 00 00 00       	pushq  $0x1b
  400f0b:	e9 30 fe ff ff       	jmpq   400d40 <.plt>

0000000000400f10 <strcmp@plt>:
  400f10:	ff 25 e2 41 22 00    	jmpq   *0x2241e2(%rip)        # 6250f8 <strcmp@GLIBC_2.2.5>
  400f16:	68 1c 00 00 00       	pushq  $0x1c
  400f1b:	e9 20 fe ff ff       	jmpq   400d40 <.plt>

0000000000400f20 <strcpy@plt>:
  400f20:	ff 25 da 41 22 00    	jmpq   *0x2241da(%rip)        # 625100 <strcpy@GLIBC_2.2.5>
  400f26:	68 1d 00 00 00       	pushq  $0x1d
  400f2b:	e9 10 fe ff ff       	jmpq   400d40 <.plt>

0000000000400f30 <munmap@plt>:
  400f30:	ff 25 d2 41 22 00    	jmpq   *0x2241d2(%rip)        # 625108 <munmap@GLIBC_2.2.5>
  400f36:	68 1e 00 00 00       	pushq  $0x1e
  400f3b:	e9 00 fe ff ff       	jmpq   400d40 <.plt>

0000000000400f40 <random@plt>:
  400f40:	ff 25 ca 41 22 00    	jmpq   *0x2241ca(%rip)        # 625110 <random@GLIBC_2.2.5>
  400f46:	68 1f 00 00 00       	pushq  $0x1f
  400f4b:	e9 f0 fd ff ff       	jmpq   400d40 <.plt>

0000000000400f50 <fprintf@plt>:
  400f50:	ff 25 c2 41 22 00    	jmpq   *0x2241c2(%rip)        # 625118 <fprintf@GLIBC_2.2.5>
  400f56:	68 20 00 00 00       	pushq  $0x20
  400f5b:	e9 e0 fd ff ff       	jmpq   400d40 <.plt>

0000000000400f60 <write@plt>:
  400f60:	ff 25 ba 41 22 00    	jmpq   *0x2241ba(%rip)        # 625120 <write@GLIBC_2.2.5>
  400f66:	68 21 00 00 00       	pushq  $0x21
  400f6b:	e9 d0 fd ff ff       	jmpq   400d40 <.plt>

0000000000400f70 <strtoul@plt>:
  400f70:	ff 25 b2 41 22 00    	jmpq   *0x2241b2(%rip)        # 625128 <strtoul@GLIBC_2.2.5>
  400f76:	68 22 00 00 00       	pushq  $0x22
  400f7b:	e9 c0 fd ff ff       	jmpq   400d40 <.plt>

0000000000400f80 <memcpy@plt>:
  400f80:	ff 25 aa 41 22 00    	jmpq   *0x2241aa(%rip)        # 625130 <memcpy@GLIBC_2.14>
  400f86:	68 23 00 00 00       	pushq  $0x23
  400f8b:	e9 b0 fd ff ff       	jmpq   400d40 <.plt>

0000000000400f90 <mmap@plt>:
  400f90:	ff 25 a2 41 22 00    	jmpq   *0x2241a2(%rip)        # 625138 <mmap@GLIBC_2.2.5>
  400f96:	68 24 00 00 00       	pushq  $0x24
  400f9b:	e9 a0 fd ff ff       	jmpq   400d40 <.plt>

0000000000400fa0 <time@plt>:
  400fa0:	ff 25 9a 41 22 00    	jmpq   *0x22419a(%rip)        # 625140 <time@GLIBC_2.2.5>
  400fa6:	68 25 00 00 00       	pushq  $0x25
  400fab:	e9 90 fd ff ff       	jmpq   400d40 <.plt>

Disassembly of section .fini:

00000000004233b4 <_fini>:
  4233b4:	48 83 ec 08          	sub    $0x8,%rsp
  4233b8:	48 83 c4 08          	add    $0x8,%rsp
  4233bc:	c3                   	retq   
