
rtarget:     file format elf64-x86-64


Disassembly of section .text:

0000000000421300 <_start>:
  421300:	31 ed                	xor    %ebp,%ebp
  421302:	49 89 d1             	mov    %rdx,%r9
  421305:	5e                   	pop    %rsi
  421306:	48 89 e2             	mov    %rsp,%rdx
  421309:	48 83 e4 f0          	and    $0xfffffffffffffff0,%rsp
  42130d:	50                   	push   %rax
  42130e:	54                   	push   %rsp
  42130f:	49 c7 c0 d0 34 42 00 	mov    $0x4234d0,%r8
  421316:	48 c7 c1 60 34 42 00 	mov    $0x423460,%rcx
  42131d:	48 c7 c7 c0 15 42 00 	mov    $0x4215c0,%rdi
  421324:	e8 07 fb fd ff       	callq  400e30 <__libc_start_main@plt>
  421329:	f4                   	hlt    
  42132a:	66 0f 1f 44 00 00    	nopw   0x0(%rax,%rax,1)

0000000000421330 <deregister_tm_clones>:
  421330:	b8 d7 54 62 00       	mov    $0x6254d7,%eax
  421335:	55                   	push   %rbp
  421336:	48 2d d0 54 62 00    	sub    $0x6254d0,%rax
  42133c:	48 83 f8 0e          	cmp    $0xe,%rax
  421340:	48 89 e5             	mov    %rsp,%rbp
  421343:	77 02                	ja     421347 <deregister_tm_clones+0x17>
  421345:	5d                   	pop    %rbp
  421346:	c3                   	retq   
  421347:	b8 00 00 00 00       	mov    $0x0,%eax
  42134c:	48 85 c0             	test   %rax,%rax
  42134f:	74 f4                	je     421345 <deregister_tm_clones+0x15>
  421351:	5d                   	pop    %rbp
  421352:	bf d0 54 62 00       	mov    $0x6254d0,%edi
  421357:	ff e0                	jmpq   *%rax
  421359:	0f 1f 80 00 00 00 00 	nopl   0x0(%rax)

0000000000421360 <register_tm_clones>:
  421360:	b8 d0 54 62 00       	mov    $0x6254d0,%eax
  421365:	55                   	push   %rbp
  421366:	48 2d d0 54 62 00    	sub    $0x6254d0,%rax
  42136c:	48 c1 f8 03          	sar    $0x3,%rax
  421370:	48 89 e5             	mov    %rsp,%rbp
  421373:	48 89 c2             	mov    %rax,%rdx
  421376:	48 c1 ea 3f          	shr    $0x3f,%rdx
  42137a:	48 01 d0             	add    %rdx,%rax
  42137d:	48 d1 f8             	sar    %rax
  421380:	75 02                	jne    421384 <register_tm_clones+0x24>
  421382:	5d                   	pop    %rbp
  421383:	c3                   	retq   
  421384:	ba 00 00 00 00       	mov    $0x0,%edx
  421389:	48 85 d2             	test   %rdx,%rdx
  42138c:	74 f4                	je     421382 <register_tm_clones+0x22>
  42138e:	5d                   	pop    %rbp
  42138f:	48 89 c6             	mov    %rax,%rsi
  421392:	bf d0 54 62 00       	mov    $0x6254d0,%edi
  421397:	ff e2                	jmpq   *%rdx
  421399:	0f 1f 80 00 00 00 00 	nopl   0x0(%rax)

00000000004213a0 <__do_global_dtors_aux>:
  4213a0:	80 3d 51 41 20 00 00 	cmpb   $0x0,0x204151(%rip)        # 6254f8 <completed.6355>
  4213a7:	75 11                	jne    4213ba <__do_global_dtors_aux+0x1a>
  4213a9:	55                   	push   %rbp
  4213aa:	48 89 e5             	mov    %rsp,%rbp
  4213ad:	e8 7e ff ff ff       	callq  421330 <deregister_tm_clones>
  4213b2:	5d                   	pop    %rbp
  4213b3:	c6 05 3e 41 20 00 01 	movb   $0x1,0x20413e(%rip)        # 6254f8 <completed.6355>
  4213ba:	f3 c3                	repz retq 
  4213bc:	0f 1f 40 00          	nopl   0x0(%rax)

00000000004213c0 <frame_dummy>:
  4213c0:	48 83 3d 48 3a 20 00 	cmpq   $0x0,0x203a48(%rip)        # 624e10 <__JCR_END__>
  4213c7:	00 
  4213c8:	74 1e                	je     4213e8 <frame_dummy+0x28>
  4213ca:	b8 00 00 00 00       	mov    $0x0,%eax
  4213cf:	48 85 c0             	test   %rax,%rax
  4213d2:	74 14                	je     4213e8 <frame_dummy+0x28>
  4213d4:	55                   	push   %rbp
  4213d5:	bf 10 4e 62 00       	mov    $0x624e10,%edi
  4213da:	48 89 e5             	mov    %rsp,%rbp
  4213dd:	ff d0                	callq  *%rax
  4213df:	5d                   	pop    %rbp
  4213e0:	e9 7b ff ff ff       	jmpq   421360 <register_tm_clones>
  4213e5:	0f 1f 00             	nopl   (%rax)
  4213e8:	e9 73 ff ff ff       	jmpq   421360 <register_tm_clones>
  4213ed:	0f 1f 00             	nopl   (%rax)

00000000004213f0 <usage>:
  4213f0:	48 83 ec 08          	sub    $0x8,%rsp
  4213f4:	48 89 fe             	mov    %rdi,%rsi
  4213f7:	83 3d 2a 41 20 00 00 	cmpl   $0x0,0x20412a(%rip)        # 625528 <is_checker>
  4213fe:	74 39                	je     421439 <usage+0x49>
  421400:	bf f0 34 42 00       	mov    $0x4234f0,%edi
  421405:	b8 00 00 00 00       	mov    $0x0,%eax
  42140a:	e8 51 f9 fd ff       	callq  400d60 <printf@plt>
  42140f:	bf 28 35 42 00       	mov    $0x423528,%edi
  421414:	e8 97 f9 fd ff       	callq  400db0 <puts@plt>
  421419:	bf a0 36 42 00       	mov    $0x4236a0,%edi
  42141e:	e8 8d f9 fd ff       	callq  400db0 <puts@plt>
  421423:	bf 50 35 42 00       	mov    $0x423550,%edi
  421428:	e8 83 f9 fd ff       	callq  400db0 <puts@plt>
  42142d:	bf ba 36 42 00       	mov    $0x4236ba,%edi
  421432:	e8 79 f9 fd ff       	callq  400db0 <puts@plt>
  421437:	eb 2d                	jmp    421466 <usage+0x76>
  421439:	bf d6 36 42 00       	mov    $0x4236d6,%edi
  42143e:	b8 00 00 00 00       	mov    $0x0,%eax
  421443:	e8 18 f9 fd ff       	callq  400d60 <printf@plt>
  421448:	bf 78 35 42 00       	mov    $0x423578,%edi
  42144d:	e8 5e f9 fd ff       	callq  400db0 <puts@plt>
  421452:	bf a0 35 42 00       	mov    $0x4235a0,%edi
  421457:	e8 54 f9 fd ff       	callq  400db0 <puts@plt>
  42145c:	bf f4 36 42 00       	mov    $0x4236f4,%edi
  421461:	e8 4a f9 fd ff       	callq  400db0 <puts@plt>
  421466:	bf 00 00 00 00       	mov    $0x0,%edi
  42146b:	e8 60 f9 fd ff       	callq  400dd0 <exit@plt>

0000000000421470 <initialize_target>:
  421470:	55                   	push   %rbp
  421471:	53                   	push   %rbx
  421472:	48 81 ec 08 21 00 00 	sub    $0x2108,%rsp
  421479:	89 f5                	mov    %esi,%ebp
  42147b:	89 3d 97 40 20 00    	mov    %edi,0x204097(%rip)        # 625518 <check_level>
  421481:	8b 3d 01 3d 20 00    	mov    0x203d01(%rip),%edi        # 625188 <target_id>
  421487:	e8 52 1d 00 00       	callq  4231de <gencookie>
  42148c:	89 05 92 40 20 00    	mov    %eax,0x204092(%rip)        # 625524 <cookie>
  421492:	89 c7                	mov    %eax,%edi
  421494:	e8 45 1d 00 00       	callq  4231de <gencookie>
  421499:	89 05 81 40 20 00    	mov    %eax,0x204081(%rip)        # 625520 <authkey>
  42149f:	8b 05 e3 3c 20 00    	mov    0x203ce3(%rip),%eax        # 625188 <target_id>
  4214a5:	8d 78 01             	lea    0x1(%rax),%edi
  4214a8:	e8 93 f9 fd ff       	callq  400e40 <srandom@plt>
  4214ad:	e8 8e fa fd ff       	callq  400f40 <random@plt>
  4214b2:	89 c7                	mov    %eax,%edi
  4214b4:	e8 ca 02 00 00       	callq  421783 <scramble>
  4214b9:	89 c3                	mov    %eax,%ebx
  4214bb:	bf 00 00 00 00       	mov    $0x0,%edi
  4214c0:	e8 db fa fd ff       	callq  400fa0 <time@plt>
  4214c5:	89 c7                	mov    %eax,%edi
  4214c7:	e8 74 f9 fd ff       	callq  400e40 <srandom@plt>
  4214cc:	85 ed                	test   %ebp,%ebp
  4214ce:	74 07                	je     4214d7 <initialize_target+0x67>
  4214d0:	e8 6b fa fd ff       	callq  400f40 <random@plt>
  4214d5:	eb 05                	jmp    4214dc <initialize_target+0x6c>
  4214d7:	b8 00 00 00 00       	mov    $0x0,%eax
  4214dc:	01 c3                	add    %eax,%ebx
  4214de:	0f b7 db             	movzwl %bx,%ebx
  4214e1:	8d 04 dd 00 01 00 00 	lea    0x100(,%rbx,8),%eax
  4214e8:	89 c0                	mov    %eax,%eax
  4214ea:	48 89 05 cf 3f 20 00 	mov    %rax,0x203fcf(%rip)        # 6254c0 <buf_offset>
  4214f1:	c6 05 50 4c 20 00 72 	movb   $0x72,0x204c50(%rip)        # 626148 <target_prefix>
  4214f8:	83 3d c9 3f 20 00 00 	cmpl   $0x0,0x203fc9(%rip)        # 6254c8 <notify>
  4214ff:	0f 84 b1 00 00 00    	je     4215b6 <initialize_target+0x146>
  421505:	83 3d 1c 40 20 00 00 	cmpl   $0x0,0x20401c(%rip)        # 625528 <is_checker>
  42150c:	0f 85 a4 00 00 00    	jne    4215b6 <initialize_target+0x146>
  421512:	be 00 01 00 00       	mov    $0x100,%esi
  421517:	48 89 e7             	mov    %rsp,%rdi
  42151a:	e8 a1 f9 fd ff       	callq  400ec0 <gethostname@plt>
  42151f:	85 c0                	test   %eax,%eax
  421521:	74 25                	je     421548 <initialize_target+0xd8>
  421523:	bf d0 35 42 00       	mov    $0x4235d0,%edi
  421528:	e8 83 f8 fd ff       	callq  400db0 <puts@plt>
  42152d:	bf 08 00 00 00       	mov    $0x8,%edi
  421532:	e8 99 f8 fd ff       	callq  400dd0 <exit@plt>
  421537:	48 89 e6             	mov    %rsp,%rsi
  42153a:	e8 a1 f8 fd ff       	callq  400de0 <strcasecmp@plt>
  42153f:	85 c0                	test   %eax,%eax
  421541:	74 21                	je     421564 <initialize_target+0xf4>
  421543:	83 c3 01             	add    $0x1,%ebx
  421546:	eb 05                	jmp    42154d <initialize_target+0xdd>
  421548:	bb 00 00 00 00       	mov    $0x0,%ebx
  42154d:	48 63 c3             	movslq %ebx,%rax
  421550:	48 8b 3c c5 a0 51 62 	mov    0x6251a0(,%rax,8),%rdi
  421557:	00 
  421558:	48 85 ff             	test   %rdi,%rdi
  42155b:	75 da                	jne    421537 <initialize_target+0xc7>
  42155d:	b8 00 00 00 00       	mov    $0x0,%eax
  421562:	eb 05                	jmp    421569 <initialize_target+0xf9>
  421564:	b8 01 00 00 00       	mov    $0x1,%eax
  421569:	85 c0                	test   %eax,%eax
  42156b:	75 17                	jne    421584 <initialize_target+0x114>
  42156d:	48 89 e6             	mov    %rsp,%rsi
  421570:	bf 08 36 42 00       	mov    $0x423608,%edi
  421575:	e8 e6 f7 fd ff       	callq  400d60 <printf@plt>
  42157a:	bf 08 00 00 00       	mov    $0x8,%edi
  42157f:	e8 4c f8 fd ff       	callq  400dd0 <exit@plt>
  421584:	48 8d bc 24 00 01 00 	lea    0x100(%rsp),%rdi
  42158b:	00 
  42158c:	e8 e4 19 00 00       	callq  422f75 <init_driver>
  421591:	85 c0                	test   %eax,%eax
  421593:	79 21                	jns    4215b6 <initialize_target+0x146>
  421595:	48 8d b4 24 00 01 00 	lea    0x100(%rsp),%rsi
  42159c:	00 
  42159d:	bf 48 36 42 00       	mov    $0x423648,%edi
  4215a2:	b8 00 00 00 00       	mov    $0x0,%eax
  4215a7:	e8 b4 f7 fd ff       	callq  400d60 <printf@plt>
  4215ac:	bf 08 00 00 00       	mov    $0x8,%edi
  4215b1:	e8 1a f8 fd ff       	callq  400dd0 <exit@plt>
  4215b6:	48 81 c4 08 21 00 00 	add    $0x2108,%rsp
  4215bd:	5b                   	pop    %rbx
  4215be:	5d                   	pop    %rbp
  4215bf:	c3                   	retq   

00000000004215c0 <main>:
  4215c0:	41 56                	push   %r14
  4215c2:	41 55                	push   %r13
  4215c4:	41 54                	push   %r12
  4215c6:	55                   	push   %rbp
  4215c7:	53                   	push   %rbx
  4215c8:	41 89 fc             	mov    %edi,%r12d
  4215cb:	48 89 f3             	mov    %rsi,%rbx
  4215ce:	be 81 23 42 00       	mov    $0x422381,%esi
  4215d3:	bf 0b 00 00 00       	mov    $0xb,%edi
  4215d8:	e8 f3 f8 fd ff       	callq  400ed0 <signal@plt>
  4215dd:	be 33 23 42 00       	mov    $0x422333,%esi
  4215e2:	bf 07 00 00 00       	mov    $0x7,%edi
  4215e7:	e8 e4 f8 fd ff       	callq  400ed0 <signal@plt>
  4215ec:	be cf 23 42 00       	mov    $0x4223cf,%esi
  4215f1:	bf 04 00 00 00       	mov    $0x4,%edi
  4215f6:	e8 d5 f8 fd ff       	callq  400ed0 <signal@plt>
  4215fb:	83 3d 26 3f 20 00 00 	cmpl   $0x0,0x203f26(%rip)        # 625528 <is_checker>
  421602:	74 20                	je     421624 <main+0x64>
  421604:	be 1d 24 42 00       	mov    $0x42241d,%esi
  421609:	bf 0e 00 00 00       	mov    $0xe,%edi
  42160e:	e8 bd f8 fd ff       	callq  400ed0 <signal@plt>
  421613:	bf 05 00 00 00       	mov    $0x5,%edi
  421618:	e8 d3 f8 fd ff       	callq  400ef0 <alarm@plt>
  42161d:	bd 12 37 42 00       	mov    $0x423712,%ebp
  421622:	eb 05                	jmp    421629 <main+0x69>
  421624:	bd 0d 37 42 00       	mov    $0x42370d,%ebp
  421629:	48 8b 05 b0 3e 20 00 	mov    0x203eb0(%rip),%rax        # 6254e0 <stdin@@GLIBC_2.2.5>
  421630:	48 89 05 d9 3e 20 00 	mov    %rax,0x203ed9(%rip)        # 625510 <infile>
  421637:	41 bd 00 00 00 00    	mov    $0x0,%r13d
  42163d:	41 be 00 00 00 00    	mov    $0x0,%r14d
  421643:	e9 b9 00 00 00       	jmpq   421701 <main+0x141>
  421648:	83 e8 61             	sub    $0x61,%eax
  42164b:	3c 10                	cmp    $0x10,%al
  42164d:	0f 87 93 00 00 00    	ja     4216e6 <main+0x126>
  421653:	0f b6 c0             	movzbl %al,%eax
  421656:	ff 24 c5 58 37 42 00 	jmpq   *0x423758(,%rax,8)
  42165d:	48 8b 3b             	mov    (%rbx),%rdi
  421660:	e8 8b fd ff ff       	callq  4213f0 <usage>
  421665:	be 25 3b 42 00       	mov    $0x423b25,%esi
  42166a:	48 8b 3d 77 3e 20 00 	mov    0x203e77(%rip),%rdi        # 6254e8 <optarg@@GLIBC_2.2.5>
  421671:	e8 aa f7 fd ff       	callq  400e20 <fopen@plt>
  421676:	48 89 05 93 3e 20 00 	mov    %rax,0x203e93(%rip)        # 625510 <infile>
  42167d:	48 85 c0             	test   %rax,%rax
  421680:	75 7f                	jne    421701 <main+0x141>
  421682:	48 8b 15 5f 3e 20 00 	mov    0x203e5f(%rip),%rdx        # 6254e8 <optarg@@GLIBC_2.2.5>
  421689:	be 1a 37 42 00       	mov    $0x42371a,%esi
  42168e:	48 8b 3d 5b 3e 20 00 	mov    0x203e5b(%rip),%rdi        # 6254f0 <stderr@@GLIBC_2.2.5>
  421695:	e8 b6 f8 fd ff       	callq  400f50 <fprintf@plt>
  42169a:	b8 01 00 00 00       	mov    $0x1,%eax
  42169f:	e9 d6 00 00 00       	jmpq   42177a <main+0x1ba>
  4216a4:	ba 10 00 00 00       	mov    $0x10,%edx
  4216a9:	be 00 00 00 00       	mov    $0x0,%esi
  4216ae:	48 8b 3d 33 3e 20 00 	mov    0x203e33(%rip),%rdi        # 6254e8 <optarg@@GLIBC_2.2.5>
  4216b5:	e8 b6 f8 fd ff       	callq  400f70 <strtoul@plt>
  4216ba:	41 89 c6             	mov    %eax,%r14d
  4216bd:	eb 42                	jmp    421701 <main+0x141>
  4216bf:	ba 0a 00 00 00       	mov    $0xa,%edx
  4216c4:	be 00 00 00 00       	mov    $0x0,%esi
  4216c9:	48 8b 3d 18 3e 20 00 	mov    0x203e18(%rip),%rdi        # 6254e8 <optarg@@GLIBC_2.2.5>
  4216d0:	e8 cb f7 fd ff       	callq  400ea0 <strtol@plt>
  4216d5:	41 89 c5             	mov    %eax,%r13d
  4216d8:	eb 27                	jmp    421701 <main+0x141>
  4216da:	c7 05 e4 3d 20 00 00 	movl   $0x0,0x203de4(%rip)        # 6254c8 <notify>
  4216e1:	00 00 00 
  4216e4:	eb 1b                	jmp    421701 <main+0x141>
  4216e6:	40 0f be f6          	movsbl %sil,%esi
  4216ea:	bf 37 37 42 00       	mov    $0x423737,%edi
  4216ef:	b8 00 00 00 00       	mov    $0x0,%eax
  4216f4:	e8 67 f6 fd ff       	callq  400d60 <printf@plt>
  4216f9:	48 8b 3b             	mov    (%rbx),%rdi
  4216fc:	e8 ef fc ff ff       	callq  4213f0 <usage>
  421701:	48 89 ea             	mov    %rbp,%rdx
  421704:	48 89 de             	mov    %rbx,%rsi
  421707:	44 89 e7             	mov    %r12d,%edi
  42170a:	e8 e1 f6 fd ff       	callq  400df0 <getopt@plt>
  42170f:	89 c6                	mov    %eax,%esi
  421711:	3c ff                	cmp    $0xff,%al
  421713:	0f 85 2f ff ff ff    	jne    421648 <main+0x88>
  421719:	be 01 00 00 00       	mov    $0x1,%esi
  42171e:	44 89 ef             	mov    %r13d,%edi
  421721:	e8 4a fd ff ff       	callq  421470 <initialize_target>
  421726:	83 3d fb 3d 20 00 00 	cmpl   $0x0,0x203dfb(%rip)        # 625528 <is_checker>
  42172d:	74 25                	je     421754 <main+0x194>
  42172f:	44 3b 35 ea 3d 20 00 	cmp    0x203dea(%rip),%r14d        # 625520 <authkey>
  421736:	74 1c                	je     421754 <main+0x194>
  421738:	44 89 f6             	mov    %r14d,%esi
  42173b:	bf 70 36 42 00       	mov    $0x423670,%edi
  421740:	b8 00 00 00 00       	mov    $0x0,%eax
  421745:	e8 16 f6 fd ff       	callq  400d60 <printf@plt>
  42174a:	b8 00 00 00 00       	mov    $0x0,%eax
  42174f:	e8 e7 08 00 00       	callq  42203b <check_fail>
  421754:	8b 35 ca 3d 20 00    	mov    0x203dca(%rip),%esi        # 625524 <cookie>
  42175a:	bf 4a 37 42 00       	mov    $0x42374a,%edi
  42175f:	b8 00 00 00 00       	mov    $0x0,%eax
  421764:	e8 f7 f5 fd ff       	callq  400d60 <printf@plt>
  421769:	48 8b 3d 50 3d 20 00 	mov    0x203d50(%rip),%rdi        # 6254c0 <buf_offset>
  421770:	e8 f6 0c 00 00       	callq  42246b <launch>
  421775:	b8 00 00 00 00       	mov    $0x0,%eax
  42177a:	5b                   	pop    %rbx
  42177b:	5d                   	pop    %rbp
  42177c:	41 5c                	pop    %r12
  42177e:	41 5d                	pop    %r13
  421780:	41 5e                	pop    %r14
  421782:	c3                   	retq   

0000000000421783 <scramble>:
  421783:	b8 00 00 00 00       	mov    $0x0,%eax
  421788:	eb 11                	jmp    42179b <scramble+0x18>
  42178a:	69 c8 2c 39 00 00    	imul   $0x392c,%eax,%ecx
  421790:	01 f9                	add    %edi,%ecx
  421792:	89 c2                	mov    %eax,%edx
  421794:	89 4c 94 d0          	mov    %ecx,-0x30(%rsp,%rdx,4)
  421798:	83 c0 01             	add    $0x1,%eax
  42179b:	83 f8 09             	cmp    $0x9,%eax
  42179e:	76 ea                	jbe    42178a <scramble+0x7>
  4217a0:	8b 44 24 f0          	mov    -0x10(%rsp),%eax
  4217a4:	69 c0 6d 7c 00 00    	imul   $0x7c6d,%eax,%eax
  4217aa:	89 44 24 f0          	mov    %eax,-0x10(%rsp)
  4217ae:	8b 44 24 ec          	mov    -0x14(%rsp),%eax
  4217b2:	69 c0 3c a2 00 00    	imul   $0xa23c,%eax,%eax
  4217b8:	89 44 24 ec          	mov    %eax,-0x14(%rsp)
  4217bc:	8b 44 24 ec          	mov    -0x14(%rsp),%eax
  4217c0:	69 c0 83 c9 00 00    	imul   $0xc983,%eax,%eax
  4217c6:	89 44 24 ec          	mov    %eax,-0x14(%rsp)
  4217ca:	8b 44 24 ec          	mov    -0x14(%rsp),%eax
  4217ce:	69 c0 63 50 00 00    	imul   $0x5063,%eax,%eax
  4217d4:	89 44 24 ec          	mov    %eax,-0x14(%rsp)
  4217d8:	8b 44 24 e8          	mov    -0x18(%rsp),%eax
  4217dc:	69 c0 29 1f 00 00    	imul   $0x1f29,%eax,%eax
  4217e2:	89 44 24 e8          	mov    %eax,-0x18(%rsp)
  4217e6:	8b 44 24 e0          	mov    -0x20(%rsp),%eax
  4217ea:	69 c0 65 2f 00 00    	imul   $0x2f65,%eax,%eax
  4217f0:	89 44 24 e0          	mov    %eax,-0x20(%rsp)
  4217f4:	8b 44 24 ec          	mov    -0x14(%rsp),%eax
  4217f8:	69 c0 0f 13 00 00    	imul   $0x130f,%eax,%eax
  4217fe:	89 44 24 ec          	mov    %eax,-0x14(%rsp)
  421802:	8b 44 24 e0          	mov    -0x20(%rsp),%eax
  421806:	69 c0 90 6f 00 00    	imul   $0x6f90,%eax,%eax
  42180c:	89 44 24 e0          	mov    %eax,-0x20(%rsp)
  421810:	8b 44 24 e4          	mov    -0x1c(%rsp),%eax
  421814:	69 c0 f6 29 00 00    	imul   $0x29f6,%eax,%eax
  42181a:	89 44 24 e4          	mov    %eax,-0x1c(%rsp)
  42181e:	8b 44 24 e4          	mov    -0x1c(%rsp),%eax
  421822:	69 c0 b5 42 00 00    	imul   $0x42b5,%eax,%eax
  421828:	89 44 24 e4          	mov    %eax,-0x1c(%rsp)
  42182c:	8b 44 24 d4          	mov    -0x2c(%rsp),%eax
  421830:	69 c0 c0 ad 00 00    	imul   $0xadc0,%eax,%eax
  421836:	89 44 24 d4          	mov    %eax,-0x2c(%rsp)
  42183a:	8b 44 24 ec          	mov    -0x14(%rsp),%eax
  42183e:	69 c0 58 6e 00 00    	imul   $0x6e58,%eax,%eax
  421844:	89 44 24 ec          	mov    %eax,-0x14(%rsp)
  421848:	8b 44 24 dc          	mov    -0x24(%rsp),%eax
  42184c:	69 c0 a3 8d 00 00    	imul   $0x8da3,%eax,%eax
  421852:	89 44 24 dc          	mov    %eax,-0x24(%rsp)
  421856:	8b 44 24 e4          	mov    -0x1c(%rsp),%eax
  42185a:	69 c0 6e d4 00 00    	imul   $0xd46e,%eax,%eax
  421860:	89 44 24 e4          	mov    %eax,-0x1c(%rsp)
  421864:	8b 44 24 d8          	mov    -0x28(%rsp),%eax
  421868:	69 c0 65 16 00 00    	imul   $0x1665,%eax,%eax
  42186e:	89 44 24 d8          	mov    %eax,-0x28(%rsp)
  421872:	8b 44 24 f4          	mov    -0xc(%rsp),%eax
  421876:	69 c0 eb 3c 00 00    	imul   $0x3ceb,%eax,%eax
  42187c:	89 44 24 f4          	mov    %eax,-0xc(%rsp)
  421880:	8b 44 24 e0          	mov    -0x20(%rsp),%eax
  421884:	69 c0 ba cf 00 00    	imul   $0xcfba,%eax,%eax
  42188a:	89 44 24 e0          	mov    %eax,-0x20(%rsp)
  42188e:	8b 44 24 ec          	mov    -0x14(%rsp),%eax
  421892:	69 c0 88 f4 00 00    	imul   $0xf488,%eax,%eax
  421898:	89 44 24 ec          	mov    %eax,-0x14(%rsp)
  42189c:	8b 44 24 d8          	mov    -0x28(%rsp),%eax
  4218a0:	69 c0 97 91 00 00    	imul   $0x9197,%eax,%eax
  4218a6:	89 44 24 d8          	mov    %eax,-0x28(%rsp)
  4218aa:	8b 44 24 d8          	mov    -0x28(%rsp),%eax
  4218ae:	69 c0 ea 63 00 00    	imul   $0x63ea,%eax,%eax
  4218b4:	89 44 24 d8          	mov    %eax,-0x28(%rsp)
  4218b8:	8b 44 24 d4          	mov    -0x2c(%rsp),%eax
  4218bc:	69 c0 a2 ab 00 00    	imul   $0xaba2,%eax,%eax
  4218c2:	89 44 24 d4          	mov    %eax,-0x2c(%rsp)
  4218c6:	8b 44 24 e8          	mov    -0x18(%rsp),%eax
  4218ca:	69 c0 37 05 00 00    	imul   $0x537,%eax,%eax
  4218d0:	89 44 24 e8          	mov    %eax,-0x18(%rsp)
  4218d4:	8b 44 24 f4          	mov    -0xc(%rsp),%eax
  4218d8:	69 c0 e6 be 00 00    	imul   $0xbee6,%eax,%eax
  4218de:	89 44 24 f4          	mov    %eax,-0xc(%rsp)
  4218e2:	8b 44 24 e8          	mov    -0x18(%rsp),%eax
  4218e6:	69 c0 40 ee 00 00    	imul   $0xee40,%eax,%eax
  4218ec:	89 44 24 e8          	mov    %eax,-0x18(%rsp)
  4218f0:	8b 44 24 e4          	mov    -0x1c(%rsp),%eax
  4218f4:	69 c0 ec 4e 00 00    	imul   $0x4eec,%eax,%eax
  4218fa:	89 44 24 e4          	mov    %eax,-0x1c(%rsp)
  4218fe:	8b 44 24 f4          	mov    -0xc(%rsp),%eax
  421902:	69 c0 49 e4 00 00    	imul   $0xe449,%eax,%eax
  421908:	89 44 24 f4          	mov    %eax,-0xc(%rsp)
  42190c:	8b 44 24 f4          	mov    -0xc(%rsp),%eax
  421910:	69 c0 52 ad 00 00    	imul   $0xad52,%eax,%eax
  421916:	89 44 24 f4          	mov    %eax,-0xc(%rsp)
  42191a:	8b 44 24 f4          	mov    -0xc(%rsp),%eax
  42191e:	69 c0 78 1e 00 00    	imul   $0x1e78,%eax,%eax
  421924:	89 44 24 f4          	mov    %eax,-0xc(%rsp)
  421928:	8b 44 24 d8          	mov    -0x28(%rsp),%eax
  42192c:	69 c0 f7 a6 00 00    	imul   $0xa6f7,%eax,%eax
  421932:	89 44 24 d8          	mov    %eax,-0x28(%rsp)
  421936:	8b 44 24 e0          	mov    -0x20(%rsp),%eax
  42193a:	69 c0 b5 3e 00 00    	imul   $0x3eb5,%eax,%eax
  421940:	89 44 24 e0          	mov    %eax,-0x20(%rsp)
  421944:	8b 44 24 e8          	mov    -0x18(%rsp),%eax
  421948:	69 c0 4e 2a 00 00    	imul   $0x2a4e,%eax,%eax
  42194e:	89 44 24 e8          	mov    %eax,-0x18(%rsp)
  421952:	8b 44 24 e0          	mov    -0x20(%rsp),%eax
  421956:	69 c0 2f 50 00 00    	imul   $0x502f,%eax,%eax
  42195c:	89 44 24 e0          	mov    %eax,-0x20(%rsp)
  421960:	8b 44 24 e0          	mov    -0x20(%rsp),%eax
  421964:	69 c0 c8 5a 00 00    	imul   $0x5ac8,%eax,%eax
  42196a:	89 44 24 e0          	mov    %eax,-0x20(%rsp)
  42196e:	8b 44 24 e0          	mov    -0x20(%rsp),%eax
  421972:	69 c0 45 93 00 00    	imul   $0x9345,%eax,%eax
  421978:	89 44 24 e0          	mov    %eax,-0x20(%rsp)
  42197c:	8b 44 24 f4          	mov    -0xc(%rsp),%eax
  421980:	69 c0 a4 89 00 00    	imul   $0x89a4,%eax,%eax
  421986:	89 44 24 f4          	mov    %eax,-0xc(%rsp)
  42198a:	8b 44 24 e8          	mov    -0x18(%rsp),%eax
  42198e:	69 c0 20 9d 00 00    	imul   $0x9d20,%eax,%eax
  421994:	89 44 24 e8          	mov    %eax,-0x18(%rsp)
  421998:	8b 44 24 ec          	mov    -0x14(%rsp),%eax
  42199c:	69 c0 7f 8a 00 00    	imul   $0x8a7f,%eax,%eax
  4219a2:	89 44 24 ec          	mov    %eax,-0x14(%rsp)
  4219a6:	8b 44 24 e4          	mov    -0x1c(%rsp),%eax
  4219aa:	69 c0 f8 f3 00 00    	imul   $0xf3f8,%eax,%eax
  4219b0:	89 44 24 e4          	mov    %eax,-0x1c(%rsp)
  4219b4:	8b 44 24 e0          	mov    -0x20(%rsp),%eax
  4219b8:	69 c0 1f 17 00 00    	imul   $0x171f,%eax,%eax
  4219be:	89 44 24 e0          	mov    %eax,-0x20(%rsp)
  4219c2:	8b 44 24 e4          	mov    -0x1c(%rsp),%eax
  4219c6:	69 c0 42 32 00 00    	imul   $0x3242,%eax,%eax
  4219cc:	89 44 24 e4          	mov    %eax,-0x1c(%rsp)
  4219d0:	8b 44 24 e4          	mov    -0x1c(%rsp),%eax
  4219d4:	69 c0 2d 13 00 00    	imul   $0x132d,%eax,%eax
  4219da:	89 44 24 e4          	mov    %eax,-0x1c(%rsp)
  4219de:	8b 44 24 d0          	mov    -0x30(%rsp),%eax
  4219e2:	69 c0 b8 62 00 00    	imul   $0x62b8,%eax,%eax
  4219e8:	89 44 24 d0          	mov    %eax,-0x30(%rsp)
  4219ec:	8b 44 24 dc          	mov    -0x24(%rsp),%eax
  4219f0:	69 c0 2d 69 00 00    	imul   $0x692d,%eax,%eax
  4219f6:	89 44 24 dc          	mov    %eax,-0x24(%rsp)
  4219fa:	8b 44 24 d8          	mov    -0x28(%rsp),%eax
  4219fe:	69 c0 75 fb 00 00    	imul   $0xfb75,%eax,%eax
  421a04:	89 44 24 d8          	mov    %eax,-0x28(%rsp)
  421a08:	8b 44 24 f0          	mov    -0x10(%rsp),%eax
  421a0c:	69 c0 17 74 00 00    	imul   $0x7417,%eax,%eax
  421a12:	89 44 24 f0          	mov    %eax,-0x10(%rsp)
  421a16:	8b 44 24 d8          	mov    -0x28(%rsp),%eax
  421a1a:	69 c0 80 cd 00 00    	imul   $0xcd80,%eax,%eax
  421a20:	89 44 24 d8          	mov    %eax,-0x28(%rsp)
  421a24:	8b 44 24 e0          	mov    -0x20(%rsp),%eax
  421a28:	69 c0 cb b5 00 00    	imul   $0xb5cb,%eax,%eax
  421a2e:	89 44 24 e0          	mov    %eax,-0x20(%rsp)
  421a32:	8b 44 24 ec          	mov    -0x14(%rsp),%eax
  421a36:	69 c0 6e 98 00 00    	imul   $0x986e,%eax,%eax
  421a3c:	89 44 24 ec          	mov    %eax,-0x14(%rsp)
  421a40:	8b 44 24 d8          	mov    -0x28(%rsp),%eax
  421a44:	69 c0 68 62 00 00    	imul   $0x6268,%eax,%eax
  421a4a:	89 44 24 d8          	mov    %eax,-0x28(%rsp)
  421a4e:	8b 44 24 f0          	mov    -0x10(%rsp),%eax
  421a52:	69 c0 f3 fc 00 00    	imul   $0xfcf3,%eax,%eax
  421a58:	89 44 24 f0          	mov    %eax,-0x10(%rsp)
  421a5c:	8b 44 24 d0          	mov    -0x30(%rsp),%eax
  421a60:	69 c0 e3 22 00 00    	imul   $0x22e3,%eax,%eax
  421a66:	89 44 24 d0          	mov    %eax,-0x30(%rsp)
  421a6a:	8b 44 24 f0          	mov    -0x10(%rsp),%eax
  421a6e:	69 c0 52 21 00 00    	imul   $0x2152,%eax,%eax
  421a74:	89 44 24 f0          	mov    %eax,-0x10(%rsp)
  421a78:	8b 44 24 f4          	mov    -0xc(%rsp),%eax
  421a7c:	69 c0 6b 3c 00 00    	imul   $0x3c6b,%eax,%eax
  421a82:	89 44 24 f4          	mov    %eax,-0xc(%rsp)
  421a86:	8b 44 24 e8          	mov    -0x18(%rsp),%eax
  421a8a:	69 c0 c8 f6 00 00    	imul   $0xf6c8,%eax,%eax
  421a90:	89 44 24 e8          	mov    %eax,-0x18(%rsp)
  421a94:	8b 44 24 f0          	mov    -0x10(%rsp),%eax
  421a98:	69 c0 83 f7 00 00    	imul   $0xf783,%eax,%eax
  421a9e:	89 44 24 f0          	mov    %eax,-0x10(%rsp)
  421aa2:	8b 44 24 ec          	mov    -0x14(%rsp),%eax
  421aa6:	69 c0 96 b9 00 00    	imul   $0xb996,%eax,%eax
  421aac:	89 44 24 ec          	mov    %eax,-0x14(%rsp)
  421ab0:	8b 44 24 f0          	mov    -0x10(%rsp),%eax
  421ab4:	69 c0 95 3f 00 00    	imul   $0x3f95,%eax,%eax
  421aba:	89 44 24 f0          	mov    %eax,-0x10(%rsp)
  421abe:	8b 44 24 d0          	mov    -0x30(%rsp),%eax
  421ac2:	69 c0 31 cb 00 00    	imul   $0xcb31,%eax,%eax
  421ac8:	89 44 24 d0          	mov    %eax,-0x30(%rsp)
  421acc:	8b 44 24 d0          	mov    -0x30(%rsp),%eax
  421ad0:	69 c0 7f 9d 00 00    	imul   $0x9d7f,%eax,%eax
  421ad6:	89 44 24 d0          	mov    %eax,-0x30(%rsp)
  421ada:	8b 44 24 f4          	mov    -0xc(%rsp),%eax
  421ade:	69 c0 e6 b8 00 00    	imul   $0xb8e6,%eax,%eax
  421ae4:	89 44 24 f4          	mov    %eax,-0xc(%rsp)
  421ae8:	8b 44 24 dc          	mov    -0x24(%rsp),%eax
  421aec:	69 c0 d1 00 00 00    	imul   $0xd1,%eax,%eax
  421af2:	89 44 24 dc          	mov    %eax,-0x24(%rsp)
  421af6:	8b 44 24 e0          	mov    -0x20(%rsp),%eax
  421afa:	69 c0 fd af 00 00    	imul   $0xaffd,%eax,%eax
  421b00:	89 44 24 e0          	mov    %eax,-0x20(%rsp)
  421b04:	8b 44 24 f4          	mov    -0xc(%rsp),%eax
  421b08:	69 c0 17 a4 00 00    	imul   $0xa417,%eax,%eax
  421b0e:	89 44 24 f4          	mov    %eax,-0xc(%rsp)
  421b12:	8b 44 24 f4          	mov    -0xc(%rsp),%eax
  421b16:	69 c0 2f c7 00 00    	imul   $0xc72f,%eax,%eax
  421b1c:	89 44 24 f4          	mov    %eax,-0xc(%rsp)
  421b20:	8b 44 24 e4          	mov    -0x1c(%rsp),%eax
  421b24:	69 c0 1f 74 00 00    	imul   $0x741f,%eax,%eax
  421b2a:	89 44 24 e4          	mov    %eax,-0x1c(%rsp)
  421b2e:	8b 44 24 ec          	mov    -0x14(%rsp),%eax
  421b32:	69 c0 8b f2 00 00    	imul   $0xf28b,%eax,%eax
  421b38:	89 44 24 ec          	mov    %eax,-0x14(%rsp)
  421b3c:	8b 44 24 d4          	mov    -0x2c(%rsp),%eax
  421b40:	69 c0 37 5e 00 00    	imul   $0x5e37,%eax,%eax
  421b46:	89 44 24 d4          	mov    %eax,-0x2c(%rsp)
  421b4a:	8b 44 24 e8          	mov    -0x18(%rsp),%eax
  421b4e:	69 c0 65 44 00 00    	imul   $0x4465,%eax,%eax
  421b54:	89 44 24 e8          	mov    %eax,-0x18(%rsp)
  421b58:	8b 44 24 f4          	mov    -0xc(%rsp),%eax
  421b5c:	69 c0 28 29 00 00    	imul   $0x2928,%eax,%eax
  421b62:	89 44 24 f4          	mov    %eax,-0xc(%rsp)
  421b66:	8b 44 24 e8          	mov    -0x18(%rsp),%eax
  421b6a:	69 c0 2d ee 00 00    	imul   $0xee2d,%eax,%eax
  421b70:	89 44 24 e8          	mov    %eax,-0x18(%rsp)
  421b74:	8b 44 24 f4          	mov    -0xc(%rsp),%eax
  421b78:	69 c0 37 64 00 00    	imul   $0x6437,%eax,%eax
  421b7e:	89 44 24 f4          	mov    %eax,-0xc(%rsp)
  421b82:	8b 44 24 dc          	mov    -0x24(%rsp),%eax
  421b86:	69 c0 5d 2b 00 00    	imul   $0x2b5d,%eax,%eax
  421b8c:	89 44 24 dc          	mov    %eax,-0x24(%rsp)
  421b90:	8b 44 24 d8          	mov    -0x28(%rsp),%eax
  421b94:	69 c0 11 c4 00 00    	imul   $0xc411,%eax,%eax
  421b9a:	89 44 24 d8          	mov    %eax,-0x28(%rsp)
  421b9e:	8b 44 24 d4          	mov    -0x2c(%rsp),%eax
  421ba2:	69 c0 8f 4c 00 00    	imul   $0x4c8f,%eax,%eax
  421ba8:	89 44 24 d4          	mov    %eax,-0x2c(%rsp)
  421bac:	8b 44 24 d0          	mov    -0x30(%rsp),%eax
  421bb0:	69 c0 34 bd 00 00    	imul   $0xbd34,%eax,%eax
  421bb6:	89 44 24 d0          	mov    %eax,-0x30(%rsp)
  421bba:	8b 44 24 dc          	mov    -0x24(%rsp),%eax
  421bbe:	69 c0 28 73 00 00    	imul   $0x7328,%eax,%eax
  421bc4:	89 44 24 dc          	mov    %eax,-0x24(%rsp)
  421bc8:	8b 44 24 dc          	mov    -0x24(%rsp),%eax
  421bcc:	69 c0 dd 8b 00 00    	imul   $0x8bdd,%eax,%eax
  421bd2:	89 44 24 dc          	mov    %eax,-0x24(%rsp)
  421bd6:	8b 44 24 d8          	mov    -0x28(%rsp),%eax
  421bda:	69 c0 a1 74 00 00    	imul   $0x74a1,%eax,%eax
  421be0:	89 44 24 d8          	mov    %eax,-0x28(%rsp)
  421be4:	8b 44 24 dc          	mov    -0x24(%rsp),%eax
  421be8:	69 c0 90 6b 00 00    	imul   $0x6b90,%eax,%eax
  421bee:	89 44 24 dc          	mov    %eax,-0x24(%rsp)
  421bf2:	8b 44 24 e8          	mov    -0x18(%rsp),%eax
  421bf6:	69 c0 73 36 00 00    	imul   $0x3673,%eax,%eax
  421bfc:	89 44 24 e8          	mov    %eax,-0x18(%rsp)
  421c00:	8b 44 24 d0          	mov    -0x30(%rsp),%eax
  421c04:	69 c0 f4 ff 00 00    	imul   $0xfff4,%eax,%eax
  421c0a:	89 44 24 d0          	mov    %eax,-0x30(%rsp)
  421c0e:	8b 44 24 ec          	mov    -0x14(%rsp),%eax
  421c12:	69 c0 b3 76 00 00    	imul   $0x76b3,%eax,%eax
  421c18:	89 44 24 ec          	mov    %eax,-0x14(%rsp)
  421c1c:	8b 44 24 d0          	mov    -0x30(%rsp),%eax
  421c20:	69 c0 db 3c 00 00    	imul   $0x3cdb,%eax,%eax
  421c26:	89 44 24 d0          	mov    %eax,-0x30(%rsp)
  421c2a:	8b 44 24 e0          	mov    -0x20(%rsp),%eax
  421c2e:	69 c0 cd f8 00 00    	imul   $0xf8cd,%eax,%eax
  421c34:	89 44 24 e0          	mov    %eax,-0x20(%rsp)
  421c38:	8b 44 24 f0          	mov    -0x10(%rsp),%eax
  421c3c:	69 c0 46 f6 00 00    	imul   $0xf646,%eax,%eax
  421c42:	89 44 24 f0          	mov    %eax,-0x10(%rsp)
  421c46:	8b 44 24 d4          	mov    -0x2c(%rsp),%eax
  421c4a:	69 c0 b0 86 00 00    	imul   $0x86b0,%eax,%eax
  421c50:	89 44 24 d4          	mov    %eax,-0x2c(%rsp)
  421c54:	8b 44 24 ec          	mov    -0x14(%rsp),%eax
  421c58:	69 c0 bd 8e 00 00    	imul   $0x8ebd,%eax,%eax
  421c5e:	89 44 24 ec          	mov    %eax,-0x14(%rsp)
  421c62:	8b 44 24 ec          	mov    -0x14(%rsp),%eax
  421c66:	69 c0 4a fe 00 00    	imul   $0xfe4a,%eax,%eax
  421c6c:	89 44 24 ec          	mov    %eax,-0x14(%rsp)
  421c70:	8b 44 24 d8          	mov    -0x28(%rsp),%eax
  421c74:	69 c0 9b a8 00 00    	imul   $0xa89b,%eax,%eax
  421c7a:	89 44 24 d8          	mov    %eax,-0x28(%rsp)
  421c7e:	8b 44 24 e4          	mov    -0x1c(%rsp),%eax
  421c82:	69 c0 60 b4 00 00    	imul   $0xb460,%eax,%eax
  421c88:	89 44 24 e4          	mov    %eax,-0x1c(%rsp)
  421c8c:	8b 44 24 d0          	mov    -0x30(%rsp),%eax
  421c90:	69 c0 50 50 00 00    	imul   $0x5050,%eax,%eax
  421c96:	89 44 24 d0          	mov    %eax,-0x30(%rsp)
  421c9a:	8b 44 24 f4          	mov    -0xc(%rsp),%eax
  421c9e:	69 c0 d5 23 00 00    	imul   $0x23d5,%eax,%eax
  421ca4:	89 44 24 f4          	mov    %eax,-0xc(%rsp)
  421ca8:	8b 44 24 f0          	mov    -0x10(%rsp),%eax
  421cac:	69 c0 ad 4a 00 00    	imul   $0x4aad,%eax,%eax
  421cb2:	89 44 24 f0          	mov    %eax,-0x10(%rsp)
  421cb6:	8b 44 24 e4          	mov    -0x1c(%rsp),%eax
  421cba:	69 c0 21 0c 00 00    	imul   $0xc21,%eax,%eax
  421cc0:	89 44 24 e4          	mov    %eax,-0x1c(%rsp)
  421cc4:	8b 44 24 e0          	mov    -0x20(%rsp),%eax
  421cc8:	69 c0 47 d4 00 00    	imul   $0xd447,%eax,%eax
  421cce:	89 44 24 e0          	mov    %eax,-0x20(%rsp)
  421cd2:	8b 44 24 d4          	mov    -0x2c(%rsp),%eax
  421cd6:	69 c0 ed 95 00 00    	imul   $0x95ed,%eax,%eax
  421cdc:	89 44 24 d4          	mov    %eax,-0x2c(%rsp)
  421ce0:	8b 44 24 f0          	mov    -0x10(%rsp),%eax
  421ce4:	69 c0 92 6b 00 00    	imul   $0x6b92,%eax,%eax
  421cea:	89 44 24 f0          	mov    %eax,-0x10(%rsp)
  421cee:	ba 00 00 00 00       	mov    $0x0,%edx
  421cf3:	b8 00 00 00 00       	mov    $0x0,%eax
  421cf8:	eb 0b                	jmp    421d05 <scramble+0x582>
  421cfa:	89 d1                	mov    %edx,%ecx
  421cfc:	8b 4c 8c d0          	mov    -0x30(%rsp,%rcx,4),%ecx
  421d00:	01 c8                	add    %ecx,%eax
  421d02:	83 c2 01             	add    $0x1,%edx
  421d05:	83 fa 09             	cmp    $0x9,%edx
  421d08:	76 f0                	jbe    421cfa <scramble+0x577>
  421d0a:	f3 c3                	repz retq 

0000000000421d0c <getbuf>:
  421d0c:	48 83 ec 18          	sub    $0x18,%rsp
  421d10:	48 89 e7             	mov    %rsp,%rdi
  421d13:	e8 52 03 00 00       	callq  42206a <Gets>
  421d18:	b8 01 00 00 00       	mov    $0x1,%eax
  421d1d:	48 83 c4 18          	add    $0x18,%rsp
  421d21:	c3                   	retq   

0000000000421d22 <touch1>:
  421d22:	48 83 ec 08          	sub    $0x8,%rsp
  421d26:	c7 05 ec 37 20 00 01 	movl   $0x1,0x2037ec(%rip)        # 62551c <vlevel>
  421d2d:	00 00 00 
  421d30:	bf 77 39 42 00       	mov    $0x423977,%edi
  421d35:	e8 76 f0 fd ff       	callq  400db0 <puts@plt>
  421d3a:	bf 01 00 00 00       	mov    $0x1,%edi
  421d3f:	e8 15 05 00 00       	callq  422259 <validate>
  421d44:	bf 00 00 00 00       	mov    $0x0,%edi
  421d49:	e8 82 f0 fd ff       	callq  400dd0 <exit@plt>

0000000000421d4e <touch2>:
  421d4e:	48 83 ec 08          	sub    $0x8,%rsp
  421d52:	89 fe                	mov    %edi,%esi
  421d54:	c7 05 be 37 20 00 02 	movl   $0x2,0x2037be(%rip)        # 62551c <vlevel>
  421d5b:	00 00 00 
  421d5e:	3b 3d c0 37 20 00    	cmp    0x2037c0(%rip),%edi        # 625524 <cookie>
  421d64:	75 1b                	jne    421d81 <touch2+0x33>
  421d66:	bf a0 39 42 00       	mov    $0x4239a0,%edi
  421d6b:	b8 00 00 00 00       	mov    $0x0,%eax
  421d70:	e8 eb ef fd ff       	callq  400d60 <printf@plt>
  421d75:	bf 02 00 00 00       	mov    $0x2,%edi
  421d7a:	e8 da 04 00 00       	callq  422259 <validate>
  421d7f:	eb 19                	jmp    421d9a <touch2+0x4c>
  421d81:	bf c8 39 42 00       	mov    $0x4239c8,%edi
  421d86:	b8 00 00 00 00       	mov    $0x0,%eax
  421d8b:	e8 d0 ef fd ff       	callq  400d60 <printf@plt>
  421d90:	bf 02 00 00 00       	mov    $0x2,%edi
  421d95:	e8 71 05 00 00       	callq  42230b <fail>
  421d9a:	bf 00 00 00 00       	mov    $0x0,%edi
  421d9f:	e8 2c f0 fd ff       	callq  400dd0 <exit@plt>

0000000000421da4 <hexmatch>:
  421da4:	41 54                	push   %r12
  421da6:	55                   	push   %rbp
  421da7:	53                   	push   %rbx
  421da8:	48 83 ec 70          	sub    $0x70,%rsp
  421dac:	41 89 fc             	mov    %edi,%r12d
  421daf:	48 89 f5             	mov    %rsi,%rbp
  421db2:	e8 89 f1 fd ff       	callq  400f40 <random@plt>
  421db7:	48 89 c1             	mov    %rax,%rcx
  421dba:	48 ba 0b d7 a3 70 3d 	movabs $0xa3d70a3d70a3d70b,%rdx
  421dc1:	0a d7 a3 
  421dc4:	48 f7 ea             	imul   %rdx
  421dc7:	48 8d 04 0a          	lea    (%rdx,%rcx,1),%rax
  421dcb:	48 c1 f8 06          	sar    $0x6,%rax
  421dcf:	48 89 ce             	mov    %rcx,%rsi
  421dd2:	48 c1 fe 3f          	sar    $0x3f,%rsi
  421dd6:	48 29 f0             	sub    %rsi,%rax
  421dd9:	48 8d 04 80          	lea    (%rax,%rax,4),%rax
  421ddd:	48 8d 04 80          	lea    (%rax,%rax,4),%rax
  421de1:	48 c1 e0 02          	shl    $0x2,%rax
  421de5:	48 29 c1             	sub    %rax,%rcx
  421de8:	48 8d 1c 0c          	lea    (%rsp,%rcx,1),%rbx
  421dec:	44 89 e2             	mov    %r12d,%edx
  421def:	be 94 39 42 00       	mov    $0x423994,%esi
  421df4:	48 89 df             	mov    %rbx,%rdi
  421df7:	b8 00 00 00 00       	mov    $0x0,%eax
  421dfc:	e8 7f f0 fd ff       	callq  400e80 <sprintf@plt>
  421e01:	ba 09 00 00 00       	mov    $0x9,%edx
  421e06:	48 89 de             	mov    %rbx,%rsi
  421e09:	48 89 ef             	mov    %rbp,%rdi
  421e0c:	e8 ff ef fd ff       	callq  400e10 <strncmp@plt>
  421e11:	85 c0                	test   %eax,%eax
  421e13:	0f 94 c0             	sete   %al
  421e16:	0f b6 c0             	movzbl %al,%eax
  421e19:	48 83 c4 70          	add    $0x70,%rsp
  421e1d:	5b                   	pop    %rbx
  421e1e:	5d                   	pop    %rbp
  421e1f:	41 5c                	pop    %r12
  421e21:	c3                   	retq   

0000000000421e22 <touch3>:
  421e22:	53                   	push   %rbx
  421e23:	48 89 fb             	mov    %rdi,%rbx
  421e26:	c7 05 ec 36 20 00 03 	movl   $0x3,0x2036ec(%rip)        # 62551c <vlevel>
  421e2d:	00 00 00 
  421e30:	48 89 fe             	mov    %rdi,%rsi
  421e33:	8b 3d eb 36 20 00    	mov    0x2036eb(%rip),%edi        # 625524 <cookie>
  421e39:	e8 66 ff ff ff       	callq  421da4 <hexmatch>
  421e3e:	85 c0                	test   %eax,%eax
  421e40:	74 1e                	je     421e60 <touch3+0x3e>
  421e42:	48 89 de             	mov    %rbx,%rsi
  421e45:	bf f0 39 42 00       	mov    $0x4239f0,%edi
  421e4a:	b8 00 00 00 00       	mov    $0x0,%eax
  421e4f:	e8 0c ef fd ff       	callq  400d60 <printf@plt>
  421e54:	bf 03 00 00 00       	mov    $0x3,%edi
  421e59:	e8 fb 03 00 00       	callq  422259 <validate>
  421e5e:	eb 1c                	jmp    421e7c <touch3+0x5a>
  421e60:	48 89 de             	mov    %rbx,%rsi
  421e63:	bf 18 3a 42 00       	mov    $0x423a18,%edi
  421e68:	b8 00 00 00 00       	mov    $0x0,%eax
  421e6d:	e8 ee ee fd ff       	callq  400d60 <printf@plt>
  421e72:	bf 03 00 00 00       	mov    $0x3,%edi
  421e77:	e8 8f 04 00 00       	callq  42230b <fail>
  421e7c:	bf 00 00 00 00       	mov    $0x0,%edi
  421e81:	e8 4a ef fd ff       	callq  400dd0 <exit@plt>

0000000000421e86 <test>:
  421e86:	48 83 ec 08          	sub    $0x8,%rsp
  421e8a:	b8 00 00 00 00       	mov    $0x0,%eax
  421e8f:	e8 78 fe ff ff       	callq  421d0c <getbuf>
  421e94:	89 c6                	mov    %eax,%esi
  421e96:	bf 40 3a 42 00       	mov    $0x423a40,%edi
  421e9b:	b8 00 00 00 00       	mov    $0x0,%eax
  421ea0:	e8 bb ee fd ff       	callq  400d60 <printf@plt>
  421ea5:	48 83 c4 08          	add    $0x8,%rsp
  421ea9:	c3                   	retq   

0000000000421eaa <start_farm>:
  421eaa:	b8 01 00 00 00       	mov    $0x1,%eax
  421eaf:	c3                   	retq   

0000000000421eb0 <getval_329>:
  421eb0:	b8 6e 67 07 58       	mov    $0x5807676e,%eax
  421eb5:	c3                   	retq   

0000000000421eb6 <getval_310>:
  421eb6:	b8 58 90 c3 ae       	mov    $0xaec39058,%eax
  421ebb:	c3                   	retq   

0000000000421ebc <addval_427>:
  421ebc:	8d 87 48 a9 c7 c3    	lea    -0x3c3856b8(%rdi),%eax
  421ec2:	c3                   	retq   

0000000000421ec3 <setval_103>:
  421ec3:	c7 07 3e 48 90 c3    	movl   $0xc390483e,(%rdi)
  421ec9:	c3                   	retq   

0000000000421eca <setval_210>:
  421eca:	c7 07 dc 48 89 c7    	movl   $0xc78948dc,(%rdi)
  421ed0:	c3                   	retq   

0000000000421ed1 <addval_149>:
  421ed1:	8d 87 48 89 c7 90    	lea    -0x6f3876b8(%rdi),%eax
  421ed7:	c3                   	retq   

0000000000421ed8 <setval_391>:
  421ed8:	c7 07 41 06 58 c2    	movl   $0xc2580641,(%rdi)
  421ede:	c3                   	retq   

0000000000421edf <setval_476>:
  421edf:	c7 07 48 89 c7 c1    	movl   $0xc1c78948,(%rdi)
  421ee5:	c3                   	retq   

0000000000421ee6 <mid_farm>:
  421ee6:	b8 01 00 00 00       	mov    $0x1,%eax
  421eeb:	c3                   	retq   

0000000000421eec <add_xy>:
  421eec:	48 8d 04 37          	lea    (%rdi,%rsi,1),%rax
  421ef0:	c3                   	retq   

0000000000421ef1 <getval_255>:
  421ef1:	b8 1a 48 8d e0       	mov    $0xe08d481a,%eax
  421ef6:	c3                   	retq   

0000000000421ef7 <addval_281>:
  421ef7:	8d 87 89 c2 20 c0    	lea    -0x3fdf3d77(%rdi),%eax
  421efd:	c3                   	retq   

0000000000421efe <setval_269>:
  421efe:	c7 07 89 ce 78 d2    	movl   $0xd278ce89,(%rdi)
  421f04:	c3                   	retq   

0000000000421f05 <setval_203>:
  421f05:	c7 07 48 c9 e0 c3    	movl   $0xc3e0c948,(%rdi)
  421f0b:	c3                   	retq   

0000000000421f0c <setval_151>:
  421f0c:	c7 07 8d c2 90 c3    	movl   $0xc390c28d,(%rdi)
  421f12:	c3                   	retq   

0000000000421f13 <getval_284>:
  421f13:	b8 48 89 e0 c3       	mov    $0xc3e08948,%eax
  421f18:	c3                   	retq   

0000000000421f19 <setval_171>:
  421f19:	c7 07 81 ce 38 c0    	movl   $0xc038ce81,(%rdi)
  421f1f:	c3                   	retq   

0000000000421f20 <addval_277>:
  421f20:	8d 87 89 d1 28 db    	lea    -0x24d72e77(%rdi),%eax
  421f26:	c3                   	retq   

0000000000421f27 <getval_392>:
  421f27:	b8 89 c2 90 c2       	mov    $0xc290c289,%eax
  421f2c:	c3                   	retq   

0000000000421f2d <getval_424>:
  421f2d:	b8 89 d1 20 d2       	mov    $0xd220d189,%eax
  421f32:	c3                   	retq   

0000000000421f33 <setval_453>:
  421f33:	c7 07 48 89 e0 90    	movl   $0x90e08948,(%rdi)
  421f39:	c3                   	retq   

0000000000421f3a <setval_217>:
  421f3a:	c7 07 89 d1 90 c1    	movl   $0xc190d189,(%rdi)
  421f40:	c3                   	retq   

0000000000421f41 <addval_411>:
  421f41:	8d 87 89 ce 28 c9    	lea    -0x36d73177(%rdi),%eax
  421f47:	c3                   	retq   

0000000000421f48 <addval_308>:
  421f48:	8d 87 8d ce 84 d2    	lea    -0x2d7b3173(%rdi),%eax
  421f4e:	c3                   	retq   

0000000000421f4f <setval_468>:
  421f4f:	c7 07 89 d1 94 c0    	movl   $0xc094d189,(%rdi)
  421f55:	c3                   	retq   

0000000000421f56 <addval_323>:
  421f56:	8d 87 89 c2 94 c9    	lea    -0x366b3d77(%rdi),%eax
  421f5c:	c3                   	retq   

0000000000421f5d <setval_293>:
  421f5d:	c7 07 a9 c2 90 c3    	movl   $0xc390c2a9,(%rdi)
  421f63:	c3                   	retq   

0000000000421f64 <addval_413>:
  421f64:	8d 87 89 c2 18 d2    	lea    -0x2de73d77(%rdi),%eax
  421f6a:	c3                   	retq   

0000000000421f6b <setval_116>:
  421f6b:	c7 07 89 ce c4 c9    	movl   $0xc9c4ce89,(%rdi)
  421f71:	c3                   	retq   

0000000000421f72 <setval_258>:
  421f72:	c7 07 48 88 e0 c3    	movl   $0xc3e08848,(%rdi)
  421f78:	c3                   	retq   

0000000000421f79 <setval_442>:
  421f79:	c7 07 89 d1 38 c9    	movl   $0xc938d189,(%rdi)
  421f7f:	c3                   	retq   

0000000000421f80 <setval_194>:
  421f80:	c7 07 48 89 e0 c2    	movl   $0xc2e08948,(%rdi)
  421f86:	c3                   	retq   

0000000000421f87 <getval_214>:
  421f87:	b8 c4 48 09 e0       	mov    $0xe00948c4,%eax
  421f8c:	c3                   	retq   

0000000000421f8d <addval_403>:
  421f8d:	8d 87 89 ce 78 c0    	lea    -0x3f873177(%rdi),%eax
  421f93:	c3                   	retq   

0000000000421f94 <getval_129>:
  421f94:	b8 99 d1 90 90       	mov    $0x9090d199,%eax
  421f99:	c3                   	retq   

0000000000421f9a <setval_393>:
  421f9a:	c7 07 89 d1 92 90    	movl   $0x9092d189,(%rdi)
  421fa0:	c3                   	retq   

0000000000421fa1 <getval_206>:
  421fa1:	b8 48 89 e0 92       	mov    $0x92e08948,%eax
  421fa6:	c3                   	retq   

0000000000421fa7 <addval_262>:
  421fa7:	8d 87 1b 89 ce c3    	lea    -0x3c3176e5(%rdi),%eax
  421fad:	c3                   	retq   

0000000000421fae <setval_112>:
  421fae:	c7 07 89 c2 38 c0    	movl   $0xc038c289,(%rdi)
  421fb4:	c3                   	retq   

0000000000421fb5 <addval_367>:
  421fb5:	8d 87 09 c1 8b c2    	lea    -0x3d743ef7(%rdi),%eax
  421fbb:	c3                   	retq   

0000000000421fbc <setval_257>:
  421fbc:	c7 07 89 ce 84 db    	movl   $0xdb84ce89,(%rdi)
  421fc2:	c3                   	retq   

0000000000421fc3 <addval_170>:
  421fc3:	8d 87 8b d1 90 c3    	lea    -0x3c6f2e75(%rdi),%eax
  421fc9:	c3                   	retq   

0000000000421fca <end_farm>:
  421fca:	b8 01 00 00 00       	mov    $0x1,%eax
  421fcf:	c3                   	retq   

0000000000421fd0 <save_char>:
  421fd0:	8b 05 6e 41 20 00    	mov    0x20416e(%rip),%eax        # 626144 <gets_cnt>
  421fd6:	3d ff 03 00 00       	cmp    $0x3ff,%eax
  421fdb:	7f 49                	jg     422026 <save_char+0x56>
  421fdd:	8d 14 40             	lea    (%rax,%rax,2),%edx
  421fe0:	89 f9                	mov    %edi,%ecx
  421fe2:	c0 e9 04             	shr    $0x4,%cl
  421fe5:	83 e1 0f             	and    $0xf,%ecx
  421fe8:	0f b6 b1 60 3d 42 00 	movzbl 0x423d60(%rcx),%esi
  421fef:	48 63 ca             	movslq %edx,%rcx
  421ff2:	40 88 b1 40 55 62 00 	mov    %sil,0x625540(%rcx)
  421ff9:	8d 4a 01             	lea    0x1(%rdx),%ecx
  421ffc:	83 e7 0f             	and    $0xf,%edi
  421fff:	0f b6 b7 60 3d 42 00 	movzbl 0x423d60(%rdi),%esi
  422006:	48 63 c9             	movslq %ecx,%rcx
  422009:	40 88 b1 40 55 62 00 	mov    %sil,0x625540(%rcx)
  422010:	83 c2 02             	add    $0x2,%edx
  422013:	48 63 d2             	movslq %edx,%rdx
  422016:	c6 82 40 55 62 00 20 	movb   $0x20,0x625540(%rdx)
  42201d:	83 c0 01             	add    $0x1,%eax
  422020:	89 05 1e 41 20 00    	mov    %eax,0x20411e(%rip)        # 626144 <gets_cnt>
  422026:	f3 c3                	repz retq 

0000000000422028 <save_term>:
  422028:	8b 05 16 41 20 00    	mov    0x204116(%rip),%eax        # 626144 <gets_cnt>
  42202e:	8d 04 40             	lea    (%rax,%rax,2),%eax
  422031:	48 98                	cltq   
  422033:	c6 80 40 55 62 00 00 	movb   $0x0,0x625540(%rax)
  42203a:	c3                   	retq   

000000000042203b <check_fail>:
  42203b:	48 83 ec 08          	sub    $0x8,%rsp
  42203f:	0f be 35 02 41 20 00 	movsbl 0x204102(%rip),%esi        # 626148 <target_prefix>
  422046:	b9 40 55 62 00       	mov    $0x625540,%ecx
  42204b:	8b 15 c7 34 20 00    	mov    0x2034c7(%rip),%edx        # 625518 <check_level>
  422051:	bf 63 3a 42 00       	mov    $0x423a63,%edi
  422056:	b8 00 00 00 00       	mov    $0x0,%eax
  42205b:	e8 00 ed fd ff       	callq  400d60 <printf@plt>
  422060:	bf 01 00 00 00       	mov    $0x1,%edi
  422065:	e8 66 ed fd ff       	callq  400dd0 <exit@plt>

000000000042206a <Gets>:
  42206a:	41 54                	push   %r12
  42206c:	55                   	push   %rbp
  42206d:	53                   	push   %rbx
  42206e:	49 89 fc             	mov    %rdi,%r12
  422071:	c7 05 c9 40 20 00 00 	movl   $0x0,0x2040c9(%rip)        # 626144 <gets_cnt>
  422078:	00 00 00 
  42207b:	48 89 fb             	mov    %rdi,%rbx
  42207e:	eb 11                	jmp    422091 <Gets+0x27>
  422080:	48 8d 6b 01          	lea    0x1(%rbx),%rbp
  422084:	88 03                	mov    %al,(%rbx)
  422086:	0f b6 f8             	movzbl %al,%edi
  422089:	e8 42 ff ff ff       	callq  421fd0 <save_char>
  42208e:	48 89 eb             	mov    %rbp,%rbx
  422091:	48 8b 3d 78 34 20 00 	mov    0x203478(%rip),%rdi        # 625510 <infile>
  422098:	e8 c3 ed fd ff       	callq  400e60 <_IO_getc@plt>
  42209d:	83 f8 ff             	cmp    $0xffffffff,%eax
  4220a0:	74 05                	je     4220a7 <Gets+0x3d>
  4220a2:	83 f8 0a             	cmp    $0xa,%eax
  4220a5:	75 d9                	jne    422080 <Gets+0x16>
  4220a7:	c6 03 00             	movb   $0x0,(%rbx)
  4220aa:	b8 00 00 00 00       	mov    $0x0,%eax
  4220af:	e8 74 ff ff ff       	callq  422028 <save_term>
  4220b4:	4c 89 e0             	mov    %r12,%rax
  4220b7:	5b                   	pop    %rbx
  4220b8:	5d                   	pop    %rbp
  4220b9:	41 5c                	pop    %r12
  4220bb:	c3                   	retq   

00000000004220bc <notify_server>:
  4220bc:	83 3d 65 34 20 00 00 	cmpl   $0x0,0x203465(%rip)        # 625528 <is_checker>
  4220c3:	0f 85 8e 01 00 00    	jne    422257 <notify_server+0x19b>
  4220c9:	53                   	push   %rbx
  4220ca:	48 81 ec 10 40 00 00 	sub    $0x4010,%rsp
  4220d1:	89 fb                	mov    %edi,%ebx
  4220d3:	8b 05 6b 40 20 00    	mov    0x20406b(%rip),%eax        # 626144 <gets_cnt>
  4220d9:	83 c0 64             	add    $0x64,%eax
  4220dc:	3d 00 20 00 00       	cmp    $0x2000,%eax
  4220e1:	7e 19                	jle    4220fc <notify_server+0x40>
  4220e3:	bf 98 3b 42 00       	mov    $0x423b98,%edi
  4220e8:	b8 00 00 00 00       	mov    $0x0,%eax
  4220ed:	e8 6e ec fd ff       	callq  400d60 <printf@plt>
  4220f2:	bf 01 00 00 00       	mov    $0x1,%edi
  4220f7:	e8 d4 ec fd ff       	callq  400dd0 <exit@plt>
  4220fc:	44 0f be 0d 44 40 20 	movsbl 0x204044(%rip),%r9d        # 626148 <target_prefix>
  422103:	00 
  422104:	83 3d bd 33 20 00 00 	cmpl   $0x0,0x2033bd(%rip)        # 6254c8 <notify>
  42210b:	74 09                	je     422116 <notify_server+0x5a>
  42210d:	44 8b 05 0c 34 20 00 	mov    0x20340c(%rip),%r8d        # 625520 <authkey>
  422114:	eb 06                	jmp    42211c <notify_server+0x60>
  422116:	41 b8 ff ff ff ff    	mov    $0xffffffff,%r8d
  42211c:	85 db                	test   %ebx,%ebx
  42211e:	74 07                	je     422127 <notify_server+0x6b>
  422120:	b9 79 3a 42 00       	mov    $0x423a79,%ecx
  422125:	eb 05                	jmp    42212c <notify_server+0x70>
  422127:	b9 7e 3a 42 00       	mov    $0x423a7e,%ecx
  42212c:	48 c7 44 24 08 40 55 	movq   $0x625540,0x8(%rsp)
  422133:	62 00 
  422135:	89 34 24             	mov    %esi,(%rsp)
  422138:	8b 15 4a 30 20 00    	mov    0x20304a(%rip),%edx        # 625188 <target_id>
  42213e:	be 83 3a 42 00       	mov    $0x423a83,%esi
  422143:	48 8d bc 24 10 20 00 	lea    0x2010(%rsp),%rdi
  42214a:	00 
  42214b:	b8 00 00 00 00       	mov    $0x0,%eax
  422150:	e8 2b ed fd ff       	callq  400e80 <sprintf@plt>
  422155:	83 3d 6c 33 20 00 00 	cmpl   $0x0,0x20336c(%rip)        # 6254c8 <notify>
  42215c:	74 78                	je     4221d6 <notify_server+0x11a>
  42215e:	4c 8d 4c 24 10       	lea    0x10(%rsp),%r9
  422163:	41 b8 00 00 00 00    	mov    $0x0,%r8d
  422169:	48 8d 8c 24 10 20 00 	lea    0x2010(%rsp),%rcx
  422170:	00 
  422171:	48 8b 15 18 30 20 00 	mov    0x203018(%rip),%rdx        # 625190 <lab>
  422178:	48 8b 35 19 30 20 00 	mov    0x203019(%rip),%rsi        # 625198 <course>
  42217f:	48 8b 3d fa 2f 20 00 	mov    0x202ffa(%rip),%rdi        # 625180 <user_id>
  422186:	e8 b3 0f 00 00       	callq  42313e <driver_post>
  42218b:	85 c0                	test   %eax,%eax
  42218d:	79 1e                	jns    4221ad <notify_server+0xf1>
  42218f:	48 8d 74 24 10       	lea    0x10(%rsp),%rsi
  422194:	bf 9f 3a 42 00       	mov    $0x423a9f,%edi
  422199:	b8 00 00 00 00       	mov    $0x0,%eax
  42219e:	e8 bd eb fd ff       	callq  400d60 <printf@plt>
  4221a3:	bf 01 00 00 00       	mov    $0x1,%edi
  4221a8:	e8 23 ec fd ff       	callq  400dd0 <exit@plt>
  4221ad:	85 db                	test   %ebx,%ebx
  4221af:	74 19                	je     4221ca <notify_server+0x10e>
  4221b1:	bf c8 3b 42 00       	mov    $0x423bc8,%edi
  4221b6:	e8 f5 eb fd ff       	callq  400db0 <puts@plt>
  4221bb:	bf ab 3a 42 00       	mov    $0x423aab,%edi
  4221c0:	e8 eb eb fd ff       	callq  400db0 <puts@plt>
  4221c5:	e9 85 00 00 00       	jmpq   42224f <notify_server+0x193>
  4221ca:	bf b5 3a 42 00       	mov    $0x423ab5,%edi
  4221cf:	e8 dc eb fd ff       	callq  400db0 <puts@plt>
  4221d4:	eb 79                	jmp    42224f <notify_server+0x193>
  4221d6:	85 db                	test   %ebx,%ebx
  4221d8:	74 08                	je     4221e2 <notify_server+0x126>
  4221da:	be 79 3a 42 00       	mov    $0x423a79,%esi
  4221df:	90                   	nop
  4221e0:	eb 05                	jmp    4221e7 <notify_server+0x12b>
  4221e2:	be 7e 3a 42 00       	mov    $0x423a7e,%esi
  4221e7:	bf 00 3c 42 00       	mov    $0x423c00,%edi
  4221ec:	b8 00 00 00 00       	mov    $0x0,%eax
  4221f1:	e8 6a eb fd ff       	callq  400d60 <printf@plt>
  4221f6:	48 8b 35 83 2f 20 00 	mov    0x202f83(%rip),%rsi        # 625180 <user_id>
  4221fd:	bf bc 3a 42 00       	mov    $0x423abc,%edi
  422202:	b8 00 00 00 00       	mov    $0x0,%eax
  422207:	e8 54 eb fd ff       	callq  400d60 <printf@plt>
  42220c:	48 8b 35 85 2f 20 00 	mov    0x202f85(%rip),%rsi        # 625198 <course>
  422213:	bf c9 3a 42 00       	mov    $0x423ac9,%edi
  422218:	b8 00 00 00 00       	mov    $0x0,%eax
  42221d:	e8 3e eb fd ff       	callq  400d60 <printf@plt>
  422222:	48 8b 35 67 2f 20 00 	mov    0x202f67(%rip),%rsi        # 625190 <lab>
  422229:	bf d5 3a 42 00       	mov    $0x423ad5,%edi
  42222e:	b8 00 00 00 00       	mov    $0x0,%eax
  422233:	e8 28 eb fd ff       	callq  400d60 <printf@plt>
  422238:	48 8d b4 24 10 20 00 	lea    0x2010(%rsp),%rsi
  42223f:	00 
  422240:	bf de 3a 42 00       	mov    $0x423ade,%edi
  422245:	b8 00 00 00 00       	mov    $0x0,%eax
  42224a:	e8 11 eb fd ff       	callq  400d60 <printf@plt>
  42224f:	48 81 c4 10 40 00 00 	add    $0x4010,%rsp
  422256:	5b                   	pop    %rbx
  422257:	f3 c3                	repz retq 

0000000000422259 <validate>:
  422259:	53                   	push   %rbx
  42225a:	89 fb                	mov    %edi,%ebx
  42225c:	83 3d c5 32 20 00 00 	cmpl   $0x0,0x2032c5(%rip)        # 625528 <is_checker>
  422263:	74 60                	je     4222c5 <validate+0x6c>
  422265:	39 3d b1 32 20 00    	cmp    %edi,0x2032b1(%rip)        # 62551c <vlevel>
  42226b:	74 14                	je     422281 <validate+0x28>
  42226d:	bf ea 3a 42 00       	mov    $0x423aea,%edi
  422272:	e8 39 eb fd ff       	callq  400db0 <puts@plt>
  422277:	b8 00 00 00 00       	mov    $0x0,%eax
  42227c:	e8 ba fd ff ff       	callq  42203b <check_fail>
  422281:	8b 35 91 32 20 00    	mov    0x203291(%rip),%esi        # 625518 <check_level>
  422287:	39 fe                	cmp    %edi,%esi
  422289:	74 1b                	je     4222a6 <validate+0x4d>
  42228b:	89 fa                	mov    %edi,%edx
  42228d:	bf 28 3c 42 00       	mov    $0x423c28,%edi
  422292:	b8 00 00 00 00       	mov    $0x0,%eax
  422297:	e8 c4 ea fd ff       	callq  400d60 <printf@plt>
  42229c:	b8 00 00 00 00       	mov    $0x0,%eax
  4222a1:	e8 95 fd ff ff       	callq  42203b <check_fail>
  4222a6:	0f be 35 9b 3e 20 00 	movsbl 0x203e9b(%rip),%esi        # 626148 <target_prefix>
  4222ad:	b9 40 55 62 00       	mov    $0x625540,%ecx
  4222b2:	89 fa                	mov    %edi,%edx
  4222b4:	bf 08 3b 42 00       	mov    $0x423b08,%edi
  4222b9:	b8 00 00 00 00       	mov    $0x0,%eax
  4222be:	e8 9d ea fd ff       	callq  400d60 <printf@plt>
  4222c3:	eb 44                	jmp    422309 <validate+0xb0>
  4222c5:	39 3d 51 32 20 00    	cmp    %edi,0x203251(%rip)        # 62551c <vlevel>
  4222cb:	74 18                	je     4222e5 <validate+0x8c>
  4222cd:	bf ea 3a 42 00       	mov    $0x423aea,%edi
  4222d2:	e8 d9 ea fd ff       	callq  400db0 <puts@plt>
  4222d7:	89 de                	mov    %ebx,%esi
  4222d9:	bf 00 00 00 00       	mov    $0x0,%edi
  4222de:	e8 d9 fd ff ff       	callq  4220bc <notify_server>
  4222e3:	eb 24                	jmp    422309 <validate+0xb0>
  4222e5:	0f be 15 5c 3e 20 00 	movsbl 0x203e5c(%rip),%edx        # 626148 <target_prefix>
  4222ec:	89 fe                	mov    %edi,%esi
  4222ee:	bf 50 3c 42 00       	mov    $0x423c50,%edi
  4222f3:	b8 00 00 00 00       	mov    $0x0,%eax
  4222f8:	e8 63 ea fd ff       	callq  400d60 <printf@plt>
  4222fd:	89 de                	mov    %ebx,%esi
  4222ff:	bf 01 00 00 00       	mov    $0x1,%edi
  422304:	e8 b3 fd ff ff       	callq  4220bc <notify_server>
  422309:	5b                   	pop    %rbx
  42230a:	c3                   	retq   

000000000042230b <fail>:
  42230b:	48 83 ec 08          	sub    $0x8,%rsp
  42230f:	83 3d 12 32 20 00 00 	cmpl   $0x0,0x203212(%rip)        # 625528 <is_checker>
  422316:	74 0a                	je     422322 <fail+0x17>
  422318:	b8 00 00 00 00       	mov    $0x0,%eax
  42231d:	e8 19 fd ff ff       	callq  42203b <check_fail>
  422322:	89 fe                	mov    %edi,%esi
  422324:	bf 00 00 00 00       	mov    $0x0,%edi
  422329:	e8 8e fd ff ff       	callq  4220bc <notify_server>
  42232e:	48 83 c4 08          	add    $0x8,%rsp
  422332:	c3                   	retq   

0000000000422333 <bushandler>:
  422333:	48 83 ec 08          	sub    $0x8,%rsp
  422337:	83 3d ea 31 20 00 00 	cmpl   $0x0,0x2031ea(%rip)        # 625528 <is_checker>
  42233e:	74 14                	je     422354 <bushandler+0x21>
  422340:	bf 1d 3b 42 00       	mov    $0x423b1d,%edi
  422345:	e8 66 ea fd ff       	callq  400db0 <puts@plt>
  42234a:	b8 00 00 00 00       	mov    $0x0,%eax
  42234f:	e8 e7 fc ff ff       	callq  42203b <check_fail>
  422354:	bf 88 3c 42 00       	mov    $0x423c88,%edi
  422359:	e8 52 ea fd ff       	callq  400db0 <puts@plt>
  42235e:	bf 27 3b 42 00       	mov    $0x423b27,%edi
  422363:	e8 48 ea fd ff       	callq  400db0 <puts@plt>
  422368:	be 00 00 00 00       	mov    $0x0,%esi
  42236d:	bf 00 00 00 00       	mov    $0x0,%edi
  422372:	e8 45 fd ff ff       	callq  4220bc <notify_server>
  422377:	bf 01 00 00 00       	mov    $0x1,%edi
  42237c:	e8 4f ea fd ff       	callq  400dd0 <exit@plt>

0000000000422381 <seghandler>:
  422381:	48 83 ec 08          	sub    $0x8,%rsp
  422385:	83 3d 9c 31 20 00 00 	cmpl   $0x0,0x20319c(%rip)        # 625528 <is_checker>
  42238c:	74 14                	je     4223a2 <seghandler+0x21>
  42238e:	bf 3d 3b 42 00       	mov    $0x423b3d,%edi
  422393:	e8 18 ea fd ff       	callq  400db0 <puts@plt>
  422398:	b8 00 00 00 00       	mov    $0x0,%eax
  42239d:	e8 99 fc ff ff       	callq  42203b <check_fail>
  4223a2:	bf a8 3c 42 00       	mov    $0x423ca8,%edi
  4223a7:	e8 04 ea fd ff       	callq  400db0 <puts@plt>
  4223ac:	bf 27 3b 42 00       	mov    $0x423b27,%edi
  4223b1:	e8 fa e9 fd ff       	callq  400db0 <puts@plt>
  4223b6:	be 00 00 00 00       	mov    $0x0,%esi
  4223bb:	bf 00 00 00 00       	mov    $0x0,%edi
  4223c0:	e8 f7 fc ff ff       	callq  4220bc <notify_server>
  4223c5:	bf 01 00 00 00       	mov    $0x1,%edi
  4223ca:	e8 01 ea fd ff       	callq  400dd0 <exit@plt>

00000000004223cf <illegalhandler>:
  4223cf:	48 83 ec 08          	sub    $0x8,%rsp
  4223d3:	83 3d 4e 31 20 00 00 	cmpl   $0x0,0x20314e(%rip)        # 625528 <is_checker>
  4223da:	74 14                	je     4223f0 <illegalhandler+0x21>
  4223dc:	bf 50 3b 42 00       	mov    $0x423b50,%edi
  4223e1:	e8 ca e9 fd ff       	callq  400db0 <puts@plt>
  4223e6:	b8 00 00 00 00       	mov    $0x0,%eax
  4223eb:	e8 4b fc ff ff       	callq  42203b <check_fail>
  4223f0:	bf d0 3c 42 00       	mov    $0x423cd0,%edi
  4223f5:	e8 b6 e9 fd ff       	callq  400db0 <puts@plt>
  4223fa:	bf 27 3b 42 00       	mov    $0x423b27,%edi
  4223ff:	e8 ac e9 fd ff       	callq  400db0 <puts@plt>
  422404:	be 00 00 00 00       	mov    $0x0,%esi
  422409:	bf 00 00 00 00       	mov    $0x0,%edi
  42240e:	e8 a9 fc ff ff       	callq  4220bc <notify_server>
  422413:	bf 01 00 00 00       	mov    $0x1,%edi
  422418:	e8 b3 e9 fd ff       	callq  400dd0 <exit@plt>

000000000042241d <sigalrmhandler>:
  42241d:	48 83 ec 08          	sub    $0x8,%rsp
  422421:	83 3d 00 31 20 00 00 	cmpl   $0x0,0x203100(%rip)        # 625528 <is_checker>
  422428:	74 14                	je     42243e <sigalrmhandler+0x21>
  42242a:	bf 64 3b 42 00       	mov    $0x423b64,%edi
  42242f:	e8 7c e9 fd ff       	callq  400db0 <puts@plt>
  422434:	b8 00 00 00 00       	mov    $0x0,%eax
  422439:	e8 fd fb ff ff       	callq  42203b <check_fail>
  42243e:	be 05 00 00 00       	mov    $0x5,%esi
  422443:	bf 00 3d 42 00       	mov    $0x423d00,%edi
  422448:	b8 00 00 00 00       	mov    $0x0,%eax
  42244d:	e8 0e e9 fd ff       	callq  400d60 <printf@plt>
  422452:	be 00 00 00 00       	mov    $0x0,%esi
  422457:	bf 00 00 00 00       	mov    $0x0,%edi
  42245c:	e8 5b fc ff ff       	callq  4220bc <notify_server>
  422461:	bf 01 00 00 00       	mov    $0x1,%edi
  422466:	e8 65 e9 fd ff       	callq  400dd0 <exit@plt>

000000000042246b <launch>:
  42246b:	55                   	push   %rbp
  42246c:	48 89 e5             	mov    %rsp,%rbp
  42246f:	48 89 fa             	mov    %rdi,%rdx
  422472:	48 8d 47 1e          	lea    0x1e(%rdi),%rax
  422476:	48 83 e0 f0          	and    $0xfffffffffffffff0,%rax
  42247a:	48 29 c4             	sub    %rax,%rsp
  42247d:	48 8d 7c 24 0f       	lea    0xf(%rsp),%rdi
  422482:	48 83 e7 f0          	and    $0xfffffffffffffff0,%rdi
  422486:	be f4 00 00 00       	mov    $0xf4,%esi
  42248b:	e8 e0 e8 fd ff       	callq  400d70 <memset@plt>
  422490:	48 8b 05 49 30 20 00 	mov    0x203049(%rip),%rax        # 6254e0 <stdin@@GLIBC_2.2.5>
  422497:	48 39 05 72 30 20 00 	cmp    %rax,0x203072(%rip)        # 625510 <infile>
  42249e:	75 0f                	jne    4224af <launch+0x44>
  4224a0:	bf 6c 3b 42 00       	mov    $0x423b6c,%edi
  4224a5:	b8 00 00 00 00       	mov    $0x0,%eax
  4224aa:	e8 b1 e8 fd ff       	callq  400d60 <printf@plt>
  4224af:	c7 05 63 30 20 00 00 	movl   $0x0,0x203063(%rip)        # 62551c <vlevel>
  4224b6:	00 00 00 
  4224b9:	b8 00 00 00 00       	mov    $0x0,%eax
  4224be:	e8 c3 f9 ff ff       	callq  421e86 <test>
  4224c3:	83 3d 5e 30 20 00 00 	cmpl   $0x0,0x20305e(%rip)        # 625528 <is_checker>
  4224ca:	74 14                	je     4224e0 <launch+0x75>
  4224cc:	bf 79 3b 42 00       	mov    $0x423b79,%edi
  4224d1:	e8 da e8 fd ff       	callq  400db0 <puts@plt>
  4224d6:	b8 00 00 00 00       	mov    $0x0,%eax
  4224db:	e8 5b fb ff ff       	callq  42203b <check_fail>
  4224e0:	bf 84 3b 42 00       	mov    $0x423b84,%edi
  4224e5:	e8 c6 e8 fd ff       	callq  400db0 <puts@plt>
  4224ea:	c9                   	leaveq 
  4224eb:	c3                   	retq   

00000000004224ec <stable_launch>:
  4224ec:	53                   	push   %rbx
  4224ed:	48 89 3d 14 30 20 00 	mov    %rdi,0x203014(%rip)        # 625508 <global_offset>
  4224f4:	41 b9 00 00 00 00    	mov    $0x0,%r9d
  4224fa:	41 b8 00 00 00 00    	mov    $0x0,%r8d
  422500:	b9 32 01 00 00       	mov    $0x132,%ecx
  422505:	ba 07 00 00 00       	mov    $0x7,%edx
  42250a:	be 00 00 10 00       	mov    $0x100000,%esi
  42250f:	bf 00 60 58 55       	mov    $0x55586000,%edi
  422514:	e8 77 ea fd ff       	callq  400f90 <mmap@plt>
  422519:	48 89 c3             	mov    %rax,%rbx
  42251c:	48 3d 00 60 58 55    	cmp    $0x55586000,%rax
  422522:	74 32                	je     422556 <stable_launch+0x6a>
  422524:	be 00 00 10 00       	mov    $0x100000,%esi
  422529:	48 89 c7             	mov    %rax,%rdi
  42252c:	e8 ff e9 fd ff       	callq  400f30 <munmap@plt>
  422531:	ba 00 60 58 55       	mov    $0x55586000,%edx
  422536:	be 38 3d 42 00       	mov    $0x423d38,%esi
  42253b:	48 8b 3d ae 2f 20 00 	mov    0x202fae(%rip),%rdi        # 6254f0 <stderr@@GLIBC_2.2.5>
  422542:	b8 00 00 00 00       	mov    $0x0,%eax
  422547:	e8 04 ea fd ff       	callq  400f50 <fprintf@plt>
  42254c:	bf 01 00 00 00       	mov    $0x1,%edi
  422551:	e8 7a e8 fd ff       	callq  400dd0 <exit@plt>
  422556:	48 8d 90 f8 ff 0f 00 	lea    0xffff8(%rax),%rdx
  42255d:	48 89 15 ec 3b 20 00 	mov    %rdx,0x203bec(%rip)        # 626150 <stack_top>
  422564:	48 89 e0             	mov    %rsp,%rax
  422567:	48 89 d4             	mov    %rdx,%rsp
  42256a:	48 89 c2             	mov    %rax,%rdx
  42256d:	48 89 15 8c 2f 20 00 	mov    %rdx,0x202f8c(%rip)        # 625500 <global_save_stack>
  422574:	48 8b 3d 8d 2f 20 00 	mov    0x202f8d(%rip),%rdi        # 625508 <global_offset>
  42257b:	e8 eb fe ff ff       	callq  42246b <launch>
  422580:	48 8b 05 79 2f 20 00 	mov    0x202f79(%rip),%rax        # 625500 <global_save_stack>
  422587:	48 89 c4             	mov    %rax,%rsp
  42258a:	be 00 00 10 00       	mov    $0x100000,%esi
  42258f:	48 89 df             	mov    %rbx,%rdi
  422592:	e8 99 e9 fd ff       	callq  400f30 <munmap@plt>
  422597:	5b                   	pop    %rbx
  422598:	c3                   	retq   
  422599:	0f 1f 80 00 00 00 00 	nopl   0x0(%rax)

00000000004225a0 <rio_readinitb>:
  4225a0:	89 37                	mov    %esi,(%rdi)
  4225a2:	c7 47 04 00 00 00 00 	movl   $0x0,0x4(%rdi)
  4225a9:	48 8d 47 10          	lea    0x10(%rdi),%rax
  4225ad:	48 89 47 08          	mov    %rax,0x8(%rdi)
  4225b1:	c3                   	retq   

00000000004225b2 <sigalrm_handler>:
  4225b2:	48 83 ec 08          	sub    $0x8,%rsp
  4225b6:	ba 00 00 00 00       	mov    $0x0,%edx
  4225bb:	be 70 3d 42 00       	mov    $0x423d70,%esi
  4225c0:	48 8b 3d 29 2f 20 00 	mov    0x202f29(%rip),%rdi        # 6254f0 <stderr@@GLIBC_2.2.5>
  4225c7:	b8 00 00 00 00       	mov    $0x0,%eax
  4225cc:	e8 7f e9 fd ff       	callq  400f50 <fprintf@plt>
  4225d1:	bf 01 00 00 00       	mov    $0x1,%edi
  4225d6:	e8 f5 e7 fd ff       	callq  400dd0 <exit@plt>

00000000004225db <urlencode>:
  4225db:	41 54                	push   %r12
  4225dd:	55                   	push   %rbp
  4225de:	53                   	push   %rbx
  4225df:	48 83 ec 10          	sub    $0x10,%rsp
  4225e3:	48 89 fb             	mov    %rdi,%rbx
  4225e6:	48 89 f5             	mov    %rsi,%rbp
  4225e9:	b8 00 00 00 00       	mov    $0x0,%eax
  4225ee:	48 c7 c1 ff ff ff ff 	mov    $0xffffffffffffffff,%rcx
  4225f5:	f2 ae                	repnz scas %es:(%rdi),%al
  4225f7:	48 f7 d1             	not    %rcx
  4225fa:	8d 41 ff             	lea    -0x1(%rcx),%eax
  4225fd:	e9 93 00 00 00       	jmpq   422695 <urlencode+0xba>
  422602:	0f b6 13             	movzbl (%rbx),%edx
  422605:	80 fa 2a             	cmp    $0x2a,%dl
  422608:	0f 94 c1             	sete   %cl
  42260b:	80 fa 2d             	cmp    $0x2d,%dl
  42260e:	0f 94 c0             	sete   %al
  422611:	08 c1                	or     %al,%cl
  422613:	75 1f                	jne    422634 <urlencode+0x59>
  422615:	80 fa 2e             	cmp    $0x2e,%dl
  422618:	74 1a                	je     422634 <urlencode+0x59>
  42261a:	80 fa 5f             	cmp    $0x5f,%dl
  42261d:	74 15                	je     422634 <urlencode+0x59>
  42261f:	8d 42 d0             	lea    -0x30(%rdx),%eax
  422622:	3c 09                	cmp    $0x9,%al
  422624:	76 0e                	jbe    422634 <urlencode+0x59>
  422626:	8d 42 bf             	lea    -0x41(%rdx),%eax
  422629:	3c 19                	cmp    $0x19,%al
  42262b:	76 07                	jbe    422634 <urlencode+0x59>
  42262d:	8d 42 9f             	lea    -0x61(%rdx),%eax
  422630:	3c 19                	cmp    $0x19,%al
  422632:	77 09                	ja     42263d <urlencode+0x62>
  422634:	88 55 00             	mov    %dl,0x0(%rbp)
  422637:	48 8d 6d 01          	lea    0x1(%rbp),%rbp
  42263b:	eb 51                	jmp    42268e <urlencode+0xb3>
  42263d:	80 fa 20             	cmp    $0x20,%dl
  422640:	75 0a                	jne    42264c <urlencode+0x71>
  422642:	c6 45 00 2b          	movb   $0x2b,0x0(%rbp)
  422646:	48 8d 6d 01          	lea    0x1(%rbp),%rbp
  42264a:	eb 42                	jmp    42268e <urlencode+0xb3>
  42264c:	8d 42 e0             	lea    -0x20(%rdx),%eax
  42264f:	3c 5f                	cmp    $0x5f,%al
  422651:	0f 96 c1             	setbe  %cl
  422654:	80 fa 09             	cmp    $0x9,%dl
  422657:	0f 94 c0             	sete   %al
  42265a:	08 c1                	or     %al,%cl
  42265c:	74 45                	je     4226a3 <urlencode+0xc8>
  42265e:	0f b6 d2             	movzbl %dl,%edx
  422661:	be 25 3e 42 00       	mov    $0x423e25,%esi
  422666:	48 89 e7             	mov    %rsp,%rdi
  422669:	b8 00 00 00 00       	mov    $0x0,%eax
  42266e:	e8 0d e8 fd ff       	callq  400e80 <sprintf@plt>
  422673:	0f b6 04 24          	movzbl (%rsp),%eax
  422677:	88 45 00             	mov    %al,0x0(%rbp)
  42267a:	0f b6 44 24 01       	movzbl 0x1(%rsp),%eax
  42267f:	88 45 01             	mov    %al,0x1(%rbp)
  422682:	0f b6 44 24 02       	movzbl 0x2(%rsp),%eax
  422687:	88 45 02             	mov    %al,0x2(%rbp)
  42268a:	48 8d 6d 03          	lea    0x3(%rbp),%rbp
  42268e:	48 83 c3 01          	add    $0x1,%rbx
  422692:	44 89 e0             	mov    %r12d,%eax
  422695:	44 8d 60 ff          	lea    -0x1(%rax),%r12d
  422699:	85 c0                	test   %eax,%eax
  42269b:	0f 85 61 ff ff ff    	jne    422602 <urlencode+0x27>
  4226a1:	eb 05                	jmp    4226a8 <urlencode+0xcd>
  4226a3:	b8 ff ff ff ff       	mov    $0xffffffff,%eax
  4226a8:	48 83 c4 10          	add    $0x10,%rsp
  4226ac:	5b                   	pop    %rbx
  4226ad:	5d                   	pop    %rbp
  4226ae:	41 5c                	pop    %r12
  4226b0:	c3                   	retq   

00000000004226b1 <rio_writen>:
  4226b1:	41 55                	push   %r13
  4226b3:	41 54                	push   %r12
  4226b5:	55                   	push   %rbp
  4226b6:	53                   	push   %rbx
  4226b7:	48 83 ec 08          	sub    $0x8,%rsp
  4226bb:	41 89 fc             	mov    %edi,%r12d
  4226be:	48 89 f5             	mov    %rsi,%rbp
  4226c1:	49 89 d5             	mov    %rdx,%r13
  4226c4:	48 89 d3             	mov    %rdx,%rbx
  4226c7:	eb 28                	jmp    4226f1 <rio_writen+0x40>
  4226c9:	48 89 da             	mov    %rbx,%rdx
  4226cc:	48 89 ee             	mov    %rbp,%rsi
  4226cf:	44 89 e7             	mov    %r12d,%edi
  4226d2:	e8 89 e8 fd ff       	callq  400f60 <write@plt>
  4226d7:	48 85 c0             	test   %rax,%rax
  4226da:	7f 0f                	jg     4226eb <rio_writen+0x3a>
  4226dc:	e8 1f e8 fd ff       	callq  400f00 <__errno_location@plt>
  4226e1:	83 38 04             	cmpl   $0x4,(%rax)
  4226e4:	75 15                	jne    4226fb <rio_writen+0x4a>
  4226e6:	b8 00 00 00 00       	mov    $0x0,%eax
  4226eb:	48 29 c3             	sub    %rax,%rbx
  4226ee:	48 01 c5             	add    %rax,%rbp
  4226f1:	48 85 db             	test   %rbx,%rbx
  4226f4:	75 d3                	jne    4226c9 <rio_writen+0x18>
  4226f6:	4c 89 e8             	mov    %r13,%rax
  4226f9:	eb 07                	jmp    422702 <rio_writen+0x51>
  4226fb:	48 c7 c0 ff ff ff ff 	mov    $0xffffffffffffffff,%rax
  422702:	48 83 c4 08          	add    $0x8,%rsp
  422706:	5b                   	pop    %rbx
  422707:	5d                   	pop    %rbp
  422708:	41 5c                	pop    %r12
  42270a:	41 5d                	pop    %r13
  42270c:	c3                   	retq   

000000000042270d <rio_read>:
  42270d:	41 56                	push   %r14
  42270f:	41 55                	push   %r13
  422711:	41 54                	push   %r12
  422713:	55                   	push   %rbp
  422714:	53                   	push   %rbx
  422715:	48 89 fb             	mov    %rdi,%rbx
  422718:	49 89 f6             	mov    %rsi,%r14
  42271b:	49 89 d5             	mov    %rdx,%r13
  42271e:	4c 8d 67 10          	lea    0x10(%rdi),%r12
  422722:	eb 2a                	jmp    42274e <rio_read+0x41>
  422724:	ba 00 20 00 00       	mov    $0x2000,%edx
  422729:	4c 89 e6             	mov    %r12,%rsi
  42272c:	8b 3b                	mov    (%rbx),%edi
  42272e:	e8 cd e6 fd ff       	callq  400e00 <read@plt>
  422733:	89 43 04             	mov    %eax,0x4(%rbx)
  422736:	85 c0                	test   %eax,%eax
  422738:	79 0c                	jns    422746 <rio_read+0x39>
  42273a:	e8 c1 e7 fd ff       	callq  400f00 <__errno_location@plt>
  42273f:	83 38 04             	cmpl   $0x4,(%rax)
  422742:	74 0a                	je     42274e <rio_read+0x41>
  422744:	eb 37                	jmp    42277d <rio_read+0x70>
  422746:	85 c0                	test   %eax,%eax
  422748:	74 3c                	je     422786 <rio_read+0x79>
  42274a:	4c 89 63 08          	mov    %r12,0x8(%rbx)
  42274e:	8b 6b 04             	mov    0x4(%rbx),%ebp
  422751:	85 ed                	test   %ebp,%ebp
  422753:	7e cf                	jle    422724 <rio_read+0x17>
  422755:	89 e8                	mov    %ebp,%eax
  422757:	4c 39 e8             	cmp    %r13,%rax
  42275a:	72 03                	jb     42275f <rio_read+0x52>
  42275c:	44 89 ed             	mov    %r13d,%ebp
  42275f:	4c 63 e5             	movslq %ebp,%r12
  422762:	48 8b 73 08          	mov    0x8(%rbx),%rsi
  422766:	4c 89 e2             	mov    %r12,%rdx
  422769:	4c 89 f7             	mov    %r14,%rdi
  42276c:	e8 0f e8 fd ff       	callq  400f80 <memcpy@plt>
  422771:	4c 01 63 08          	add    %r12,0x8(%rbx)
  422775:	29 6b 04             	sub    %ebp,0x4(%rbx)
  422778:	4c 89 e0             	mov    %r12,%rax
  42277b:	eb 0e                	jmp    42278b <rio_read+0x7e>
  42277d:	48 c7 c0 ff ff ff ff 	mov    $0xffffffffffffffff,%rax
  422784:	eb 05                	jmp    42278b <rio_read+0x7e>
  422786:	b8 00 00 00 00       	mov    $0x0,%eax
  42278b:	5b                   	pop    %rbx
  42278c:	5d                   	pop    %rbp
  42278d:	41 5c                	pop    %r12
  42278f:	41 5d                	pop    %r13
  422791:	41 5e                	pop    %r14
  422793:	c3                   	retq   

0000000000422794 <rio_readlineb>:
  422794:	41 55                	push   %r13
  422796:	41 54                	push   %r12
  422798:	55                   	push   %rbp
  422799:	53                   	push   %rbx
  42279a:	48 83 ec 18          	sub    $0x18,%rsp
  42279e:	49 89 fd             	mov    %rdi,%r13
  4227a1:	48 89 f5             	mov    %rsi,%rbp
  4227a4:	49 89 d4             	mov    %rdx,%r12
  4227a7:	bb 01 00 00 00       	mov    $0x1,%ebx
  4227ac:	eb 3d                	jmp    4227eb <rio_readlineb+0x57>
  4227ae:	ba 01 00 00 00       	mov    $0x1,%edx
  4227b3:	48 8d 74 24 0f       	lea    0xf(%rsp),%rsi
  4227b8:	4c 89 ef             	mov    %r13,%rdi
  4227bb:	e8 4d ff ff ff       	callq  42270d <rio_read>
  4227c0:	83 f8 01             	cmp    $0x1,%eax
  4227c3:	75 12                	jne    4227d7 <rio_readlineb+0x43>
  4227c5:	48 8d 55 01          	lea    0x1(%rbp),%rdx
  4227c9:	0f b6 44 24 0f       	movzbl 0xf(%rsp),%eax
  4227ce:	88 45 00             	mov    %al,0x0(%rbp)
  4227d1:	3c 0a                	cmp    $0xa,%al
  4227d3:	75 0f                	jne    4227e4 <rio_readlineb+0x50>
  4227d5:	eb 1b                	jmp    4227f2 <rio_readlineb+0x5e>
  4227d7:	85 c0                	test   %eax,%eax
  4227d9:	75 23                	jne    4227fe <rio_readlineb+0x6a>
  4227db:	48 83 fb 01          	cmp    $0x1,%rbx
  4227df:	90                   	nop
  4227e0:	75 13                	jne    4227f5 <rio_readlineb+0x61>
  4227e2:	eb 23                	jmp    422807 <rio_readlineb+0x73>
  4227e4:	48 83 c3 01          	add    $0x1,%rbx
  4227e8:	48 89 d5             	mov    %rdx,%rbp
  4227eb:	4c 39 e3             	cmp    %r12,%rbx
  4227ee:	72 be                	jb     4227ae <rio_readlineb+0x1a>
  4227f0:	eb 03                	jmp    4227f5 <rio_readlineb+0x61>
  4227f2:	48 89 d5             	mov    %rdx,%rbp
  4227f5:	c6 45 00 00          	movb   $0x0,0x0(%rbp)
  4227f9:	48 89 d8             	mov    %rbx,%rax
  4227fc:	eb 0e                	jmp    42280c <rio_readlineb+0x78>
  4227fe:	48 c7 c0 ff ff ff ff 	mov    $0xffffffffffffffff,%rax
  422805:	eb 05                	jmp    42280c <rio_readlineb+0x78>
  422807:	b8 00 00 00 00       	mov    $0x0,%eax
  42280c:	48 83 c4 18          	add    $0x18,%rsp
  422810:	5b                   	pop    %rbx
  422811:	5d                   	pop    %rbp
  422812:	41 5c                	pop    %r12
  422814:	41 5d                	pop    %r13
  422816:	c3                   	retq   

0000000000422817 <submitr>:
  422817:	41 57                	push   %r15
  422819:	41 56                	push   %r14
  42281b:	41 55                	push   %r13
  42281d:	41 54                	push   %r12
  42281f:	55                   	push   %rbp
  422820:	53                   	push   %rbx
  422821:	48 81 ec 58 a0 00 00 	sub    $0xa058,%rsp
  422828:	49 89 fc             	mov    %rdi,%r12
  42282b:	89 74 24 1c          	mov    %esi,0x1c(%rsp)
  42282f:	48 89 54 24 10       	mov    %rdx,0x10(%rsp)
  422834:	49 89 cf             	mov    %rcx,%r15
  422837:	4d 89 c6             	mov    %r8,%r14
  42283a:	4d 89 cd             	mov    %r9,%r13
  42283d:	48 8b 9c 24 90 a0 00 	mov    0xa090(%rsp),%rbx
  422844:	00 
  422845:	c7 84 24 2c 20 00 00 	movl   $0x0,0x202c(%rsp)
  42284c:	00 00 00 00 
  422850:	ba 00 00 00 00       	mov    $0x0,%edx
  422855:	be 01 00 00 00       	mov    $0x1,%esi
  42285a:	bf 02 00 00 00       	mov    $0x2,%edi
  42285f:	e8 7c e6 fd ff       	callq  400ee0 <socket@plt>
  422864:	89 c5                	mov    %eax,%ebp
  422866:	85 c0                	test   %eax,%eax
  422868:	79 4e                	jns    4228b8 <submitr+0xa1>
  42286a:	48 b8 45 72 72 6f 72 	movabs $0x43203a726f727245,%rax
  422871:	3a 20 43 
  422874:	48 89 03             	mov    %rax,(%rbx)
  422877:	48 b8 6c 69 65 6e 74 	movabs $0x6e7520746e65696c,%rax
  42287e:	20 75 6e 
  422881:	48 89 43 08          	mov    %rax,0x8(%rbx)
  422885:	48 b8 61 62 6c 65 20 	movabs $0x206f7420656c6261,%rax
  42288c:	74 6f 20 
  42288f:	48 89 43 10          	mov    %rax,0x10(%rbx)
  422893:	48 b8 63 72 65 61 74 	movabs $0x7320657461657263,%rax
  42289a:	65 20 73 
  42289d:	48 89 43 18          	mov    %rax,0x18(%rbx)
  4228a1:	c7 43 20 6f 63 6b 65 	movl   $0x656b636f,0x20(%rbx)
  4228a8:	66 c7 43 24 74 00    	movw   $0x74,0x24(%rbx)
  4228ae:	b8 ff ff ff ff       	mov    $0xffffffff,%eax
  4228b3:	e9 83 06 00 00       	jmpq   422f3b <submitr+0x724>
  4228b8:	4c 89 e7             	mov    %r12,%rdi
  4228bb:	e8 d0 e4 fd ff       	callq  400d90 <gethostbyname@plt>
  4228c0:	48 85 c0             	test   %rax,%rax
  4228c3:	75 75                	jne    42293a <submitr+0x123>
  4228c5:	48 b8 45 72 72 6f 72 	movabs $0x44203a726f727245,%rax
  4228cc:	3a 20 44 
  4228cf:	48 89 03             	mov    %rax,(%rbx)
  4228d2:	48 b8 4e 53 20 69 73 	movabs $0x6e7520736920534e,%rax
  4228d9:	20 75 6e 
  4228dc:	48 89 43 08          	mov    %rax,0x8(%rbx)
  4228e0:	48 b8 61 62 6c 65 20 	movabs $0x206f7420656c6261,%rax
  4228e7:	74 6f 20 
  4228ea:	48 89 43 10          	mov    %rax,0x10(%rbx)
  4228ee:	48 b8 72 65 73 6f 6c 	movabs $0x2065766c6f736572,%rax
  4228f5:	76 65 20 
  4228f8:	48 89 43 18          	mov    %rax,0x18(%rbx)
  4228fc:	48 b8 41 75 74 6f 6c 	movabs $0x2062616c6f747541,%rax
  422903:	61 62 20 
  422906:	48 89 43 20          	mov    %rax,0x20(%rbx)
  42290a:	48 b8 73 65 72 76 65 	movabs $0x6120726576726573,%rax
  422911:	72 20 61 
  422914:	48 89 43 28          	mov    %rax,0x28(%rbx)
  422918:	c7 43 30 64 64 72 65 	movl   $0x65726464,0x30(%rbx)
  42291f:	66 c7 43 34 73 73    	movw   $0x7373,0x34(%rbx)
  422925:	c6 43 36 00          	movb   $0x0,0x36(%rbx)
  422929:	89 ef                	mov    %ebp,%edi
  42292b:	e8 50 e4 fd ff       	callq  400d80 <close@plt>
  422930:	b8 ff ff ff ff       	mov    $0xffffffff,%eax
  422935:	e9 01 06 00 00       	jmpq   422f3b <submitr+0x724>
  42293a:	48 c7 84 24 40 a0 00 	movq   $0x0,0xa040(%rsp)
  422941:	00 00 00 00 00 
  422946:	48 c7 84 24 48 a0 00 	movq   $0x0,0xa048(%rsp)
  42294d:	00 00 00 00 00 
  422952:	66 c7 84 24 40 a0 00 	movw   $0x2,0xa040(%rsp)
  422959:	00 02 00 
  42295c:	48 8b 48 18          	mov    0x18(%rax),%rcx
  422960:	48 63 50 14          	movslq 0x14(%rax),%rdx
  422964:	48 8d b4 24 44 a0 00 	lea    0xa044(%rsp),%rsi
  42296b:	00 
  42296c:	48 8b 39             	mov    (%rcx),%rdi
  42296f:	e8 fc e4 fd ff       	callq  400e70 <bcopy@plt>
  422974:	0f b7 44 24 1c       	movzwl 0x1c(%rsp),%eax
  422979:	66 c1 c8 08          	ror    $0x8,%ax
  42297d:	66 89 84 24 42 a0 00 	mov    %ax,0xa042(%rsp)
  422984:	00 
  422985:	ba 10 00 00 00       	mov    $0x10,%edx
  42298a:	48 8d b4 24 40 a0 00 	lea    0xa040(%rsp),%rsi
  422991:	00 
  422992:	89 ef                	mov    %ebp,%edi
  422994:	e8 17 e5 fd ff       	callq  400eb0 <connect@plt>
  422999:	85 c0                	test   %eax,%eax
  42299b:	79 67                	jns    422a04 <submitr+0x1ed>
  42299d:	48 b8 45 72 72 6f 72 	movabs $0x55203a726f727245,%rax
  4229a4:	3a 20 55 
  4229a7:	48 89 03             	mov    %rax,(%rbx)
  4229aa:	48 b8 6e 61 62 6c 65 	movabs $0x6f7420656c62616e,%rax
  4229b1:	20 74 6f 
  4229b4:	48 89 43 08          	mov    %rax,0x8(%rbx)
  4229b8:	48 b8 20 63 6f 6e 6e 	movabs $0x7463656e6e6f6320,%rax
  4229bf:	65 63 74 
  4229c2:	48 89 43 10          	mov    %rax,0x10(%rbx)
  4229c6:	48 b8 20 74 6f 20 74 	movabs $0x20656874206f7420,%rax
  4229cd:	68 65 20 
  4229d0:	48 89 43 18          	mov    %rax,0x18(%rbx)
  4229d4:	48 b8 41 75 74 6f 6c 	movabs $0x2062616c6f747541,%rax
  4229db:	61 62 20 
  4229de:	48 89 43 20          	mov    %rax,0x20(%rbx)
  4229e2:	c7 43 28 73 65 72 76 	movl   $0x76726573,0x28(%rbx)
  4229e9:	66 c7 43 2c 65 72    	movw   $0x7265,0x2c(%rbx)
  4229ef:	c6 43 2e 00          	movb   $0x0,0x2e(%rbx)
  4229f3:	89 ef                	mov    %ebp,%edi
  4229f5:	e8 86 e3 fd ff       	callq  400d80 <close@plt>
  4229fa:	b8 ff ff ff ff       	mov    $0xffffffff,%eax
  4229ff:	e9 37 05 00 00       	jmpq   422f3b <submitr+0x724>
  422a04:	48 c7 c2 ff ff ff ff 	mov    $0xffffffffffffffff,%rdx
  422a0b:	4c 89 ef             	mov    %r13,%rdi
  422a0e:	b8 00 00 00 00       	mov    $0x0,%eax
  422a13:	48 89 d1             	mov    %rdx,%rcx
  422a16:	f2 ae                	repnz scas %es:(%rdi),%al
  422a18:	48 f7 d1             	not    %rcx
  422a1b:	48 89 ce             	mov    %rcx,%rsi
  422a1e:	48 8b 7c 24 10       	mov    0x10(%rsp),%rdi
  422a23:	48 89 d1             	mov    %rdx,%rcx
  422a26:	f2 ae                	repnz scas %es:(%rdi),%al
  422a28:	48 f7 d1             	not    %rcx
  422a2b:	49 89 c8             	mov    %rcx,%r8
  422a2e:	4c 89 ff             	mov    %r15,%rdi
  422a31:	48 89 d1             	mov    %rdx,%rcx
  422a34:	f2 ae                	repnz scas %es:(%rdi),%al
  422a36:	49 29 c8             	sub    %rcx,%r8
  422a39:	4c 89 f7             	mov    %r14,%rdi
  422a3c:	48 89 d1             	mov    %rdx,%rcx
  422a3f:	f2 ae                	repnz scas %es:(%rdi),%al
  422a41:	49 29 c8             	sub    %rcx,%r8
  422a44:	48 8d 44 76 fd       	lea    -0x3(%rsi,%rsi,2),%rax
  422a49:	49 8d 44 00 7b       	lea    0x7b(%r8,%rax,1),%rax
  422a4e:	48 3d 00 20 00 00    	cmp    $0x2000,%rax
  422a54:	76 72                	jbe    422ac8 <submitr+0x2b1>
  422a56:	48 b8 45 72 72 6f 72 	movabs $0x52203a726f727245,%rax
  422a5d:	3a 20 52 
  422a60:	48 89 03             	mov    %rax,(%rbx)
  422a63:	48 b8 65 73 75 6c 74 	movabs $0x747320746c757365,%rax
  422a6a:	20 73 74 
  422a6d:	48 89 43 08          	mov    %rax,0x8(%rbx)
  422a71:	48 b8 72 69 6e 67 20 	movabs $0x6f6f7420676e6972,%rax
  422a78:	74 6f 6f 
  422a7b:	48 89 43 10          	mov    %rax,0x10(%rbx)
  422a7f:	48 b8 20 6c 61 72 67 	movabs $0x202e656772616c20,%rax
  422a86:	65 2e 20 
  422a89:	48 89 43 18          	mov    %rax,0x18(%rbx)
  422a8d:	48 b8 49 6e 63 72 65 	movabs $0x6573616572636e49,%rax
  422a94:	61 73 65 
  422a97:	48 89 43 20          	mov    %rax,0x20(%rbx)
  422a9b:	48 b8 20 53 55 42 4d 	movabs $0x5254494d42555320,%rax
  422aa2:	49 54 52 
  422aa5:	48 89 43 28          	mov    %rax,0x28(%rbx)
  422aa9:	48 b8 5f 4d 41 58 42 	movabs $0x46554258414d5f,%rax
  422ab0:	55 46 00 
  422ab3:	48 89 43 30          	mov    %rax,0x30(%rbx)
  422ab7:	89 ef                	mov    %ebp,%edi
  422ab9:	e8 c2 e2 fd ff       	callq  400d80 <close@plt>
  422abe:	b8 ff ff ff ff       	mov    $0xffffffff,%eax
  422ac3:	e9 73 04 00 00       	jmpq   422f3b <submitr+0x724>
  422ac8:	48 8d b4 24 30 40 00 	lea    0x4030(%rsp),%rsi
  422acf:	00 
  422ad0:	b9 00 04 00 00       	mov    $0x400,%ecx
  422ad5:	b8 00 00 00 00       	mov    $0x0,%eax
  422ada:	48 89 f7             	mov    %rsi,%rdi
  422add:	f3 48 ab             	rep stos %rax,%es:(%rdi)
  422ae0:	4c 89 ef             	mov    %r13,%rdi
  422ae3:	e8 f3 fa ff ff       	callq  4225db <urlencode>
  422ae8:	85 c0                	test   %eax,%eax
  422aea:	0f 89 8a 00 00 00    	jns    422b7a <submitr+0x363>
  422af0:	48 b8 45 72 72 6f 72 	movabs $0x52203a726f727245,%rax
  422af7:	3a 20 52 
  422afa:	48 89 03             	mov    %rax,(%rbx)
  422afd:	48 b8 65 73 75 6c 74 	movabs $0x747320746c757365,%rax
  422b04:	20 73 74 
  422b07:	48 89 43 08          	mov    %rax,0x8(%rbx)
  422b0b:	48 b8 72 69 6e 67 20 	movabs $0x6e6f6320676e6972,%rax
  422b12:	63 6f 6e 
  422b15:	48 89 43 10          	mov    %rax,0x10(%rbx)
  422b19:	48 b8 74 61 69 6e 73 	movabs $0x6e6120736e696174,%rax
  422b20:	20 61 6e 
  422b23:	48 89 43 18          	mov    %rax,0x18(%rbx)
  422b27:	48 b8 20 69 6c 6c 65 	movabs $0x6c6167656c6c6920,%rax
  422b2e:	67 61 6c 
  422b31:	48 89 43 20          	mov    %rax,0x20(%rbx)
  422b35:	48 b8 20 6f 72 20 75 	movabs $0x72706e7520726f20,%rax
  422b3c:	6e 70 72 
  422b3f:	48 89 43 28          	mov    %rax,0x28(%rbx)
  422b43:	48 b8 69 6e 74 61 62 	movabs $0x20656c6261746e69,%rax
  422b4a:	6c 65 20 
  422b4d:	48 89 43 30          	mov    %rax,0x30(%rbx)
  422b51:	48 b8 63 68 61 72 61 	movabs $0x6574636172616863,%rax
  422b58:	63 74 65 
  422b5b:	48 89 43 38          	mov    %rax,0x38(%rbx)
  422b5f:	66 c7 43 40 72 2e    	movw   $0x2e72,0x40(%rbx)
  422b65:	c6 43 42 00          	movb   $0x0,0x42(%rbx)
  422b69:	89 ef                	mov    %ebp,%edi
  422b6b:	e8 10 e2 fd ff       	callq  400d80 <close@plt>
  422b70:	b8 ff ff ff ff       	mov    $0xffffffff,%eax
  422b75:	e9 c1 03 00 00       	jmpq   422f3b <submitr+0x724>
  422b7a:	4c 89 24 24          	mov    %r12,(%rsp)
  422b7e:	4c 8d 8c 24 30 40 00 	lea    0x4030(%rsp),%r9
  422b85:	00 
  422b86:	4d 89 f8             	mov    %r15,%r8
  422b89:	4c 89 f1             	mov    %r14,%rcx
  422b8c:	48 8b 54 24 10       	mov    0x10(%rsp),%rdx
  422b91:	be 98 3d 42 00       	mov    $0x423d98,%esi
  422b96:	48 8d bc 24 30 60 00 	lea    0x6030(%rsp),%rdi
  422b9d:	00 
  422b9e:	b8 00 00 00 00       	mov    $0x0,%eax
  422ba3:	e8 d8 e2 fd ff       	callq  400e80 <sprintf@plt>
  422ba8:	48 8d bc 24 30 60 00 	lea    0x6030(%rsp),%rdi
  422baf:	00 
  422bb0:	b8 00 00 00 00       	mov    $0x0,%eax
  422bb5:	48 c7 c1 ff ff ff ff 	mov    $0xffffffffffffffff,%rcx
  422bbc:	f2 ae                	repnz scas %es:(%rdi),%al
  422bbe:	48 f7 d1             	not    %rcx
  422bc1:	48 8d 51 ff          	lea    -0x1(%rcx),%rdx
  422bc5:	48 8d b4 24 30 60 00 	lea    0x6030(%rsp),%rsi
  422bcc:	00 
  422bcd:	89 ef                	mov    %ebp,%edi
  422bcf:	e8 dd fa ff ff       	callq  4226b1 <rio_writen>
  422bd4:	48 85 c0             	test   %rax,%rax
  422bd7:	79 6b                	jns    422c44 <submitr+0x42d>
  422bd9:	48 b8 45 72 72 6f 72 	movabs $0x43203a726f727245,%rax
  422be0:	3a 20 43 
  422be3:	48 89 03             	mov    %rax,(%rbx)
  422be6:	48 b8 6c 69 65 6e 74 	movabs $0x6e7520746e65696c,%rax
  422bed:	20 75 6e 
  422bf0:	48 89 43 08          	mov    %rax,0x8(%rbx)
  422bf4:	48 b8 61 62 6c 65 20 	movabs $0x206f7420656c6261,%rax
  422bfb:	74 6f 20 
  422bfe:	48 89 43 10          	mov    %rax,0x10(%rbx)
  422c02:	48 b8 77 72 69 74 65 	movabs $0x6f74206574697277,%rax
  422c09:	20 74 6f 
  422c0c:	48 89 43 18          	mov    %rax,0x18(%rbx)
  422c10:	48 b8 20 74 68 65 20 	movabs $0x7475412065687420,%rax
  422c17:	41 75 74 
  422c1a:	48 89 43 20          	mov    %rax,0x20(%rbx)
  422c1e:	48 b8 6f 6c 61 62 20 	movabs $0x7265732062616c6f,%rax
  422c25:	73 65 72 
  422c28:	48 89 43 28          	mov    %rax,0x28(%rbx)
  422c2c:	c7 43 30 76 65 72 00 	movl   $0x726576,0x30(%rbx)
  422c33:	89 ef                	mov    %ebp,%edi
  422c35:	e8 46 e1 fd ff       	callq  400d80 <close@plt>
  422c3a:	b8 ff ff ff ff       	mov    $0xffffffff,%eax
  422c3f:	e9 f7 02 00 00       	jmpq   422f3b <submitr+0x724>
  422c44:	89 ee                	mov    %ebp,%esi
  422c46:	48 8d bc 24 30 80 00 	lea    0x8030(%rsp),%rdi
  422c4d:	00 
  422c4e:	e8 4d f9 ff ff       	callq  4225a0 <rio_readinitb>
  422c53:	ba 00 20 00 00       	mov    $0x2000,%edx
  422c58:	48 8d b4 24 30 60 00 	lea    0x6030(%rsp),%rsi
  422c5f:	00 
  422c60:	48 8d bc 24 30 80 00 	lea    0x8030(%rsp),%rdi
  422c67:	00 
  422c68:	e8 27 fb ff ff       	callq  422794 <rio_readlineb>
  422c6d:	48 85 c0             	test   %rax,%rax
  422c70:	7f 7f                	jg     422cf1 <submitr+0x4da>
  422c72:	48 b8 45 72 72 6f 72 	movabs $0x43203a726f727245,%rax
  422c79:	3a 20 43 
  422c7c:	48 89 03             	mov    %rax,(%rbx)
  422c7f:	48 b8 6c 69 65 6e 74 	movabs $0x6e7520746e65696c,%rax
  422c86:	20 75 6e 
  422c89:	48 89 43 08          	mov    %rax,0x8(%rbx)
  422c8d:	48 b8 61 62 6c 65 20 	movabs $0x206f7420656c6261,%rax
  422c94:	74 6f 20 
  422c97:	48 89 43 10          	mov    %rax,0x10(%rbx)
  422c9b:	48 b8 72 65 61 64 20 	movabs $0x7269662064616572,%rax
  422ca2:	66 69 72 
  422ca5:	48 89 43 18          	mov    %rax,0x18(%rbx)
  422ca9:	48 b8 73 74 20 68 65 	movabs $0x6564616568207473,%rax
  422cb0:	61 64 65 
  422cb3:	48 89 43 20          	mov    %rax,0x20(%rbx)
  422cb7:	48 b8 72 20 66 72 6f 	movabs $0x41206d6f72662072,%rax
  422cbe:	6d 20 41 
  422cc1:	48 89 43 28          	mov    %rax,0x28(%rbx)
  422cc5:	48 b8 75 74 6f 6c 61 	movabs $0x732062616c6f7475,%rax
  422ccc:	62 20 73 
  422ccf:	48 89 43 30          	mov    %rax,0x30(%rbx)
  422cd3:	c7 43 38 65 72 76 65 	movl   $0x65767265,0x38(%rbx)
  422cda:	66 c7 43 3c 72 00    	movw   $0x72,0x3c(%rbx)
  422ce0:	89 ef                	mov    %ebp,%edi
  422ce2:	e8 99 e0 fd ff       	callq  400d80 <close@plt>
  422ce7:	b8 ff ff ff ff       	mov    $0xffffffff,%eax
  422cec:	e9 4a 02 00 00       	jmpq   422f3b <submitr+0x724>
  422cf1:	4c 8d 44 24 20       	lea    0x20(%rsp),%r8
  422cf6:	48 8d 8c 24 2c 20 00 	lea    0x202c(%rsp),%rcx
  422cfd:	00 
  422cfe:	48 8d 94 24 30 20 00 	lea    0x2030(%rsp),%rdx
  422d05:	00 
  422d06:	be 2c 3e 42 00       	mov    $0x423e2c,%esi
  422d0b:	48 8d bc 24 30 60 00 	lea    0x6030(%rsp),%rdi
  422d12:	00 
  422d13:	b8 00 00 00 00       	mov    $0x0,%eax
  422d18:	e8 a3 e0 fd ff       	callq  400dc0 <__isoc99_sscanf@plt>
  422d1d:	e9 95 00 00 00       	jmpq   422db7 <submitr+0x5a0>
  422d22:	ba 00 20 00 00       	mov    $0x2000,%edx
  422d27:	48 8d b4 24 30 60 00 	lea    0x6030(%rsp),%rsi
  422d2e:	00 
  422d2f:	48 8d bc 24 30 80 00 	lea    0x8030(%rsp),%rdi
  422d36:	00 
  422d37:	e8 58 fa ff ff       	callq  422794 <rio_readlineb>
  422d3c:	48 85 c0             	test   %rax,%rax
  422d3f:	7f 76                	jg     422db7 <submitr+0x5a0>
  422d41:	48 b8 45 72 72 6f 72 	movabs $0x43203a726f727245,%rax
  422d48:	3a 20 43 
  422d4b:	48 89 03             	mov    %rax,(%rbx)
  422d4e:	48 b8 6c 69 65 6e 74 	movabs $0x6e7520746e65696c,%rax
  422d55:	20 75 6e 
  422d58:	48 89 43 08          	mov    %rax,0x8(%rbx)
  422d5c:	48 b8 61 62 6c 65 20 	movabs $0x206f7420656c6261,%rax
  422d63:	74 6f 20 
  422d66:	48 89 43 10          	mov    %rax,0x10(%rbx)
  422d6a:	48 b8 72 65 61 64 20 	movabs $0x6165682064616572,%rax
  422d71:	68 65 61 
  422d74:	48 89 43 18          	mov    %rax,0x18(%rbx)
  422d78:	48 b8 64 65 72 73 20 	movabs $0x6f72662073726564,%rax
  422d7f:	66 72 6f 
  422d82:	48 89 43 20          	mov    %rax,0x20(%rbx)
  422d86:	48 b8 6d 20 41 75 74 	movabs $0x616c6f747541206d,%rax
  422d8d:	6f 6c 61 
  422d90:	48 89 43 28          	mov    %rax,0x28(%rbx)
  422d94:	48 b8 62 20 73 65 72 	movabs $0x7265767265732062,%rax
  422d9b:	76 65 72 
  422d9e:	48 89 43 30          	mov    %rax,0x30(%rbx)
  422da2:	c6 43 38 00          	movb   $0x0,0x38(%rbx)
  422da6:	89 ef                	mov    %ebp,%edi
  422da8:	e8 d3 df fd ff       	callq  400d80 <close@plt>
  422dad:	b8 ff ff ff ff       	mov    $0xffffffff,%eax
  422db2:	e9 84 01 00 00       	jmpq   422f3b <submitr+0x724>
  422db7:	0f b6 84 24 30 60 00 	movzbl 0x6030(%rsp),%eax
  422dbe:	00 
  422dbf:	83 e8 0d             	sub    $0xd,%eax
  422dc2:	75 15                	jne    422dd9 <submitr+0x5c2>
  422dc4:	0f b6 84 24 31 60 00 	movzbl 0x6031(%rsp),%eax
  422dcb:	00 
  422dcc:	83 e8 0a             	sub    $0xa,%eax
  422dcf:	75 08                	jne    422dd9 <submitr+0x5c2>
  422dd1:	0f b6 84 24 32 60 00 	movzbl 0x6032(%rsp),%eax
  422dd8:	00 
  422dd9:	85 c0                	test   %eax,%eax
  422ddb:	0f 85 41 ff ff ff    	jne    422d22 <submitr+0x50b>
  422de1:	ba 00 20 00 00       	mov    $0x2000,%edx
  422de6:	48 8d b4 24 30 60 00 	lea    0x6030(%rsp),%rsi
  422ded:	00 
  422dee:	48 8d bc 24 30 80 00 	lea    0x8030(%rsp),%rdi
  422df5:	00 
  422df6:	e8 99 f9 ff ff       	callq  422794 <rio_readlineb>
  422dfb:	48 85 c0             	test   %rax,%rax
  422dfe:	0f 8f 80 00 00 00    	jg     422e84 <submitr+0x66d>
  422e04:	48 b8 45 72 72 6f 72 	movabs $0x43203a726f727245,%rax
  422e0b:	3a 20 43 
  422e0e:	48 89 03             	mov    %rax,(%rbx)
  422e11:	48 b8 6c 69 65 6e 74 	movabs $0x6e7520746e65696c,%rax
  422e18:	20 75 6e 
  422e1b:	48 89 43 08          	mov    %rax,0x8(%rbx)
  422e1f:	48 b8 61 62 6c 65 20 	movabs $0x206f7420656c6261,%rax
  422e26:	74 6f 20 
  422e29:	48 89 43 10          	mov    %rax,0x10(%rbx)
  422e2d:	48 b8 72 65 61 64 20 	movabs $0x6174732064616572,%rax
  422e34:	73 74 61 
  422e37:	48 89 43 18          	mov    %rax,0x18(%rbx)
  422e3b:	48 b8 74 75 73 20 6d 	movabs $0x7373656d20737574,%rax
  422e42:	65 73 73 
  422e45:	48 89 43 20          	mov    %rax,0x20(%rbx)
  422e49:	48 b8 61 67 65 20 66 	movabs $0x6d6f726620656761,%rax
  422e50:	72 6f 6d 
  422e53:	48 89 43 28          	mov    %rax,0x28(%rbx)
  422e57:	48 b8 20 41 75 74 6f 	movabs $0x62616c6f74754120,%rax
  422e5e:	6c 61 62 
  422e61:	48 89 43 30          	mov    %rax,0x30(%rbx)
  422e65:	48 b8 20 73 65 72 76 	movabs $0x72657672657320,%rax
  422e6c:	65 72 00 
  422e6f:	48 89 43 38          	mov    %rax,0x38(%rbx)
  422e73:	89 ef                	mov    %ebp,%edi
  422e75:	e8 06 df fd ff       	callq  400d80 <close@plt>
  422e7a:	b8 ff ff ff ff       	mov    $0xffffffff,%eax
  422e7f:	e9 b7 00 00 00       	jmpq   422f3b <submitr+0x724>
  422e84:	8b 94 24 2c 20 00 00 	mov    0x202c(%rsp),%edx
  422e8b:	81 fa c8 00 00 00    	cmp    $0xc8,%edx
  422e91:	74 28                	je     422ebb <submitr+0x6a4>
  422e93:	48 8d 4c 24 20       	lea    0x20(%rsp),%rcx
  422e98:	be f8 3d 42 00       	mov    $0x423df8,%esi
  422e9d:	48 89 df             	mov    %rbx,%rdi
  422ea0:	b8 00 00 00 00       	mov    $0x0,%eax
  422ea5:	e8 d6 df fd ff       	callq  400e80 <sprintf@plt>
  422eaa:	89 ef                	mov    %ebp,%edi
  422eac:	e8 cf de fd ff       	callq  400d80 <close@plt>
  422eb1:	b8 ff ff ff ff       	mov    $0xffffffff,%eax
  422eb6:	e9 80 00 00 00       	jmpq   422f3b <submitr+0x724>
  422ebb:	48 8d b4 24 30 60 00 	lea    0x6030(%rsp),%rsi
  422ec2:	00 
  422ec3:	48 89 df             	mov    %rbx,%rdi
  422ec6:	e8 55 e0 fd ff       	callq  400f20 <strcpy@plt>
  422ecb:	89 ef                	mov    %ebp,%edi
  422ecd:	e8 ae de fd ff       	callq  400d80 <close@plt>
  422ed2:	0f b6 03             	movzbl (%rbx),%eax
  422ed5:	83 e8 4f             	sub    $0x4f,%eax
  422ed8:	75 18                	jne    422ef2 <submitr+0x6db>
  422eda:	0f b6 53 01          	movzbl 0x1(%rbx),%edx
  422ede:	83 ea 4b             	sub    $0x4b,%edx
  422ee1:	75 11                	jne    422ef4 <submitr+0x6dd>
  422ee3:	0f b6 53 02          	movzbl 0x2(%rbx),%edx
  422ee7:	83 ea 0a             	sub    $0xa,%edx
  422eea:	75 08                	jne    422ef4 <submitr+0x6dd>
  422eec:	0f b6 53 03          	movzbl 0x3(%rbx),%edx
  422ef0:	eb 02                	jmp    422ef4 <submitr+0x6dd>
  422ef2:	89 c2                	mov    %eax,%edx
  422ef4:	85 d2                	test   %edx,%edx
  422ef6:	74 30                	je     422f28 <submitr+0x711>
  422ef8:	bf 3d 3e 42 00       	mov    $0x423e3d,%edi
  422efd:	b9 05 00 00 00       	mov    $0x5,%ecx
  422f02:	48 89 de             	mov    %rbx,%rsi
  422f05:	f3 a6                	repz cmpsb %es:(%rdi),%ds:(%rsi)
  422f07:	0f 97 c1             	seta   %cl
  422f0a:	0f 92 c2             	setb   %dl
  422f0d:	38 d1                	cmp    %dl,%cl
  422f0f:	74 1e                	je     422f2f <submitr+0x718>
  422f11:	85 c0                	test   %eax,%eax
  422f13:	75 0d                	jne    422f22 <submitr+0x70b>
  422f15:	0f b6 43 01          	movzbl 0x1(%rbx),%eax
  422f19:	83 e8 4b             	sub    $0x4b,%eax
  422f1c:	75 04                	jne    422f22 <submitr+0x70b>
  422f1e:	0f b6 43 02          	movzbl 0x2(%rbx),%eax
  422f22:	85 c0                	test   %eax,%eax
  422f24:	75 10                	jne    422f36 <submitr+0x71f>
  422f26:	eb 13                	jmp    422f3b <submitr+0x724>
  422f28:	b8 00 00 00 00       	mov    $0x0,%eax
  422f2d:	eb 0c                	jmp    422f3b <submitr+0x724>
  422f2f:	b8 00 00 00 00       	mov    $0x0,%eax
  422f34:	eb 05                	jmp    422f3b <submitr+0x724>
  422f36:	b8 ff ff ff ff       	mov    $0xffffffff,%eax
  422f3b:	48 81 c4 58 a0 00 00 	add    $0xa058,%rsp
  422f42:	5b                   	pop    %rbx
  422f43:	5d                   	pop    %rbp
  422f44:	41 5c                	pop    %r12
  422f46:	41 5d                	pop    %r13
  422f48:	41 5e                	pop    %r14
  422f4a:	41 5f                	pop    %r15
  422f4c:	c3                   	retq   

0000000000422f4d <init_timeout>:
  422f4d:	53                   	push   %rbx
  422f4e:	89 fb                	mov    %edi,%ebx
  422f50:	85 ff                	test   %edi,%edi
  422f52:	74 1f                	je     422f73 <init_timeout+0x26>
  422f54:	85 ff                	test   %edi,%edi
  422f56:	79 05                	jns    422f5d <init_timeout+0x10>
  422f58:	bb 00 00 00 00       	mov    $0x0,%ebx
  422f5d:	be b2 25 42 00       	mov    $0x4225b2,%esi
  422f62:	bf 0e 00 00 00       	mov    $0xe,%edi
  422f67:	e8 64 df fd ff       	callq  400ed0 <signal@plt>
  422f6c:	89 df                	mov    %ebx,%edi
  422f6e:	e8 7d df fd ff       	callq  400ef0 <alarm@plt>
  422f73:	5b                   	pop    %rbx
  422f74:	c3                   	retq   

0000000000422f75 <init_driver>:
  422f75:	55                   	push   %rbp
  422f76:	53                   	push   %rbx
  422f77:	48 83 ec 18          	sub    $0x18,%rsp
  422f7b:	48 89 fd             	mov    %rdi,%rbp
  422f7e:	be 01 00 00 00       	mov    $0x1,%esi
  422f83:	bf 0d 00 00 00       	mov    $0xd,%edi
  422f88:	e8 43 df fd ff       	callq  400ed0 <signal@plt>
  422f8d:	be 01 00 00 00       	mov    $0x1,%esi
  422f92:	bf 1d 00 00 00       	mov    $0x1d,%edi
  422f97:	e8 34 df fd ff       	callq  400ed0 <signal@plt>
  422f9c:	be 01 00 00 00       	mov    $0x1,%esi
  422fa1:	bf 1d 00 00 00       	mov    $0x1d,%edi
  422fa6:	e8 25 df fd ff       	callq  400ed0 <signal@plt>
  422fab:	ba 00 00 00 00       	mov    $0x0,%edx
  422fb0:	be 01 00 00 00       	mov    $0x1,%esi
  422fb5:	bf 02 00 00 00       	mov    $0x2,%edi
  422fba:	e8 21 df fd ff       	callq  400ee0 <socket@plt>
  422fbf:	89 c3                	mov    %eax,%ebx
  422fc1:	85 c0                	test   %eax,%eax
  422fc3:	79 4f                	jns    423014 <init_driver+0x9f>
  422fc5:	48 b8 45 72 72 6f 72 	movabs $0x43203a726f727245,%rax
  422fcc:	3a 20 43 
  422fcf:	48 89 45 00          	mov    %rax,0x0(%rbp)
  422fd3:	48 b8 6c 69 65 6e 74 	movabs $0x6e7520746e65696c,%rax
  422fda:	20 75 6e 
  422fdd:	48 89 45 08          	mov    %rax,0x8(%rbp)
  422fe1:	48 b8 61 62 6c 65 20 	movabs $0x206f7420656c6261,%rax
  422fe8:	74 6f 20 
  422feb:	48 89 45 10          	mov    %rax,0x10(%rbp)
  422fef:	48 b8 63 72 65 61 74 	movabs $0x7320657461657263,%rax
  422ff6:	65 20 73 
  422ff9:	48 89 45 18          	mov    %rax,0x18(%rbp)
  422ffd:	c7 45 20 6f 63 6b 65 	movl   $0x656b636f,0x20(%rbp)
  423004:	66 c7 45 24 74 00    	movw   $0x74,0x24(%rbp)
  42300a:	b8 ff ff ff ff       	mov    $0xffffffff,%eax
  42300f:	e9 23 01 00 00       	jmpq   423137 <init_driver+0x1c2>
  423014:	bf 42 3e 42 00       	mov    $0x423e42,%edi
  423019:	e8 72 dd fd ff       	callq  400d90 <gethostbyname@plt>
  42301e:	48 85 c0             	test   %rax,%rax
  423021:	75 68                	jne    42308b <init_driver+0x116>
  423023:	48 b8 45 72 72 6f 72 	movabs $0x44203a726f727245,%rax
  42302a:	3a 20 44 
  42302d:	48 89 45 00          	mov    %rax,0x0(%rbp)
  423031:	48 b8 4e 53 20 69 73 	movabs $0x6e7520736920534e,%rax
  423038:	20 75 6e 
  42303b:	48 89 45 08          	mov    %rax,0x8(%rbp)
  42303f:	48 b8 61 62 6c 65 20 	movabs $0x206f7420656c6261,%rax
  423046:	74 6f 20 
  423049:	48 89 45 10          	mov    %rax,0x10(%rbp)
  42304d:	48 b8 72 65 73 6f 6c 	movabs $0x2065766c6f736572,%rax
  423054:	76 65 20 
  423057:	48 89 45 18          	mov    %rax,0x18(%rbp)
  42305b:	48 b8 73 65 72 76 65 	movabs $0x6120726576726573,%rax
  423062:	72 20 61 
  423065:	48 89 45 20          	mov    %rax,0x20(%rbp)
  423069:	c7 45 28 64 64 72 65 	movl   $0x65726464,0x28(%rbp)
  423070:	66 c7 45 2c 73 73    	movw   $0x7373,0x2c(%rbp)
  423076:	c6 45 2e 00          	movb   $0x0,0x2e(%rbp)
  42307a:	89 df                	mov    %ebx,%edi
  42307c:	e8 ff dc fd ff       	callq  400d80 <close@plt>
  423081:	b8 ff ff ff ff       	mov    $0xffffffff,%eax
  423086:	e9 ac 00 00 00       	jmpq   423137 <init_driver+0x1c2>
  42308b:	48 c7 04 24 00 00 00 	movq   $0x0,(%rsp)
  423092:	00 
  423093:	48 c7 44 24 08 00 00 	movq   $0x0,0x8(%rsp)
  42309a:	00 00 
  42309c:	66 c7 04 24 02 00    	movw   $0x2,(%rsp)
  4230a2:	48 8b 48 18          	mov    0x18(%rax),%rcx
  4230a6:	48 63 50 14          	movslq 0x14(%rax),%rdx
  4230aa:	48 8d 74 24 04       	lea    0x4(%rsp),%rsi
  4230af:	48 8b 39             	mov    (%rcx),%rdi
  4230b2:	e8 b9 dd fd ff       	callq  400e70 <bcopy@plt>
  4230b7:	66 c7 44 24 02 00 50 	movw   $0x5000,0x2(%rsp)
  4230be:	ba 10 00 00 00       	mov    $0x10,%edx
  4230c3:	48 89 e6             	mov    %rsp,%rsi
  4230c6:	89 df                	mov    %ebx,%edi
  4230c8:	e8 e3 dd fd ff       	callq  400eb0 <connect@plt>
  4230cd:	85 c0                	test   %eax,%eax
  4230cf:	79 50                	jns    423121 <init_driver+0x1ac>
  4230d1:	48 b8 45 72 72 6f 72 	movabs $0x55203a726f727245,%rax
  4230d8:	3a 20 55 
  4230db:	48 89 45 00          	mov    %rax,0x0(%rbp)
  4230df:	48 b8 6e 61 62 6c 65 	movabs $0x6f7420656c62616e,%rax
  4230e6:	20 74 6f 
  4230e9:	48 89 45 08          	mov    %rax,0x8(%rbp)
  4230ed:	48 b8 20 63 6f 6e 6e 	movabs $0x7463656e6e6f6320,%rax
  4230f4:	65 63 74 
  4230f7:	48 89 45 10          	mov    %rax,0x10(%rbp)
  4230fb:	48 b8 20 74 6f 20 73 	movabs $0x76726573206f7420,%rax
  423102:	65 72 76 
  423105:	48 89 45 18          	mov    %rax,0x18(%rbp)
  423109:	66 c7 45 20 65 72    	movw   $0x7265,0x20(%rbp)
  42310f:	c6 45 22 00          	movb   $0x0,0x22(%rbp)
  423113:	89 df                	mov    %ebx,%edi
  423115:	e8 66 dc fd ff       	callq  400d80 <close@plt>
  42311a:	b8 ff ff ff ff       	mov    $0xffffffff,%eax
  42311f:	eb 16                	jmp    423137 <init_driver+0x1c2>
  423121:	89 df                	mov    %ebx,%edi
  423123:	e8 58 dc fd ff       	callq  400d80 <close@plt>
  423128:	66 c7 45 00 4f 4b    	movw   $0x4b4f,0x0(%rbp)
  42312e:	c6 45 02 00          	movb   $0x0,0x2(%rbp)
  423132:	b8 00 00 00 00       	mov    $0x0,%eax
  423137:	48 83 c4 18          	add    $0x18,%rsp
  42313b:	5b                   	pop    %rbx
  42313c:	5d                   	pop    %rbp
  42313d:	c3                   	retq   

000000000042313e <driver_post>:
  42313e:	53                   	push   %rbx
  42313f:	48 83 ec 10          	sub    $0x10,%rsp
  423143:	4c 89 cb             	mov    %r9,%rbx
  423146:	45 85 c0             	test   %r8d,%r8d
  423149:	74 22                	je     42316d <driver_post+0x2f>
  42314b:	48 89 ce             	mov    %rcx,%rsi
  42314e:	bf 59 3e 42 00       	mov    $0x423e59,%edi
  423153:	b8 00 00 00 00       	mov    $0x0,%eax
  423158:	e8 03 dc fd ff       	callq  400d60 <printf@plt>
  42315d:	66 c7 03 4f 4b       	movw   $0x4b4f,(%rbx)
  423162:	c6 43 02 00          	movb   $0x0,0x2(%rbx)
  423166:	b8 00 00 00 00       	mov    $0x0,%eax
  42316b:	eb 39                	jmp    4231a6 <driver_post+0x68>
  42316d:	48 85 ff             	test   %rdi,%rdi
  423170:	74 26                	je     423198 <driver_post+0x5a>
  423172:	80 3f 00             	cmpb   $0x0,(%rdi)
  423175:	74 21                	je     423198 <driver_post+0x5a>
  423177:	4c 89 0c 24          	mov    %r9,(%rsp)
  42317b:	49 89 c9             	mov    %rcx,%r9
  42317e:	49 89 d0             	mov    %rdx,%r8
  423181:	48 89 f9             	mov    %rdi,%rcx
  423184:	48 89 f2             	mov    %rsi,%rdx
  423187:	be 50 00 00 00       	mov    $0x50,%esi
  42318c:	bf 42 3e 42 00       	mov    $0x423e42,%edi
  423191:	e8 81 f6 ff ff       	callq  422817 <submitr>
  423196:	eb 0e                	jmp    4231a6 <driver_post+0x68>
  423198:	66 c7 03 4f 4b       	movw   $0x4b4f,(%rbx)
  42319d:	c6 43 02 00          	movb   $0x0,0x2(%rbx)
  4231a1:	b8 00 00 00 00       	mov    $0x0,%eax
  4231a6:	48 83 c4 10          	add    $0x10,%rsp
  4231aa:	5b                   	pop    %rbx
  4231ab:	c3                   	retq   

00000000004231ac <check>:
  4231ac:	89 f8                	mov    %edi,%eax
  4231ae:	c1 e8 1c             	shr    $0x1c,%eax
  4231b1:	85 c0                	test   %eax,%eax
  4231b3:	74 1d                	je     4231d2 <check+0x26>
  4231b5:	b9 00 00 00 00       	mov    $0x0,%ecx
  4231ba:	eb 0b                	jmp    4231c7 <check+0x1b>
  4231bc:	89 f8                	mov    %edi,%eax
  4231be:	d3 e8                	shr    %cl,%eax
  4231c0:	3c 0a                	cmp    $0xa,%al
  4231c2:	74 14                	je     4231d8 <check+0x2c>
  4231c4:	83 c1 08             	add    $0x8,%ecx
  4231c7:	83 f9 1f             	cmp    $0x1f,%ecx
  4231ca:	7e f0                	jle    4231bc <check+0x10>
  4231cc:	b8 01 00 00 00       	mov    $0x1,%eax
  4231d1:	c3                   	retq   
  4231d2:	b8 00 00 00 00       	mov    $0x0,%eax
  4231d7:	c3                   	retq   
  4231d8:	b8 00 00 00 00       	mov    $0x0,%eax
  4231dd:	c3                   	retq   

00000000004231de <gencookie>:
  4231de:	53                   	push   %rbx
  4231df:	83 c7 01             	add    $0x1,%edi
  4231e2:	e8 59 dc fd ff       	callq  400e40 <srandom@plt>
  4231e7:	e8 54 dd fd ff       	callq  400f40 <random@plt>
  4231ec:	89 c3                	mov    %eax,%ebx
  4231ee:	89 c7                	mov    %eax,%edi
  4231f0:	e8 b7 ff ff ff       	callq  4231ac <check>
  4231f5:	85 c0                	test   %eax,%eax
  4231f7:	74 ee                	je     4231e7 <gencookie+0x9>
  4231f9:	89 d8                	mov    %ebx,%eax
  4231fb:	5b                   	pop    %rbx
  4231fc:	c3                   	retq   

00000000004231fd <checkhash>:
  4231fd:	53                   	push   %rbx
  4231fe:	48 81 ec f0 00 00 00 	sub    $0xf0,%rsp
  423205:	48 b8 73 32 30 2d 31 	movabs $0x313235312d303273,%rax
  42320c:	35 32 31 
  42320f:	48 89 84 24 e0 00 00 	mov    %rax,0xe0(%rsp)
  423216:	00 
  423217:	66 c7 84 24 e8 00 00 	movw   $0x33,0xe8(%rsp)
  42321e:	00 33 00 
  423221:	48 b8 61 74 74 61 63 	movabs $0x616c6b6361747461,%rax
  423228:	6b 6c 61 
  42322b:	48 89 84 24 d0 00 00 	mov    %rax,0xd0(%rsp)
  423232:	00 
  423233:	66 c7 84 24 d8 00 00 	movw   $0x62,0xd8(%rsp)
  42323a:	00 62 00 
  42323d:	48 b8 42 4f 4f 47 41 	movabs $0x4f4f4241474f4f42,%rax
  423244:	42 4f 4f 
  423247:	48 89 84 24 c0 00 00 	mov    %rax,0xc0(%rsp)
  42324e:	00 
  42324f:	66 c7 84 24 c8 00 00 	movw   $0x4147,0xc8(%rsp)
  423256:	00 47 41 
  423259:	c6 84 24 ca 00 00 00 	movb   $0x0,0xca(%rsp)
  423260:	00 
  423261:	48 b8 6b 65 79 2e 74 	movabs $0x7478742e79656b,%rax
  423268:	78 74 00 
  42326b:	48 89 84 24 b0 00 00 	mov    %rax,0xb0(%rsp)
  423272:	00 
  423273:	be 25 3b 42 00       	mov    $0x423b25,%esi
  423278:	48 8d bc 24 b0 00 00 	lea    0xb0(%rsp),%rdi
  42327f:	00 
  423280:	e8 9b db fd ff       	callq  400e20 <fopen@plt>
  423285:	48 89 c3             	mov    %rax,%rbx
  423288:	48 85 c0             	test   %rax,%rax
  42328b:	75 21                	jne    4232ae <checkhash+0xb1>
  42328d:	48 8d b4 24 b0 00 00 	lea    0xb0(%rsp),%rsi
  423294:	00 
  423295:	bf 78 3e 42 00       	mov    $0x423e78,%edi
  42329a:	b8 00 00 00 00       	mov    $0x0,%eax
  42329f:	e8 bc da fd ff       	callq  400d60 <printf@plt>
  4232a4:	bf 01 00 00 00       	mov    $0x1,%edi
  4232a9:	e8 22 db fd ff       	callq  400dd0 <exit@plt>
  4232ae:	48 89 c2             	mov    %rax,%rdx
  4232b1:	be 0a 00 00 00       	mov    $0xa,%esi
  4232b6:	48 8d bc 24 a0 00 00 	lea    0xa0(%rsp),%rdi
  4232bd:	00 
  4232be:	e8 8d db fd ff       	callq  400e50 <fgets@plt>
  4232c3:	48 85 c0             	test   %rax,%rax
  4232c6:	75 1c                	jne    4232e4 <checkhash+0xe7>
  4232c8:	48 8d b4 24 b0 00 00 	lea    0xb0(%rsp),%rsi
  4232cf:	00 
  4232d0:	bf b0 3e 42 00       	mov    $0x423eb0,%edi
  4232d5:	e8 86 da fd ff       	callq  400d60 <printf@plt>
  4232da:	bf 01 00 00 00       	mov    $0x1,%edi
  4232df:	e8 ec da fd ff       	callq  400dd0 <exit@plt>
  4232e4:	48 8d bc 24 a0 00 00 	lea    0xa0(%rsp),%rdi
  4232eb:	00 
  4232ec:	b8 00 00 00 00       	mov    $0x0,%eax
  4232f1:	48 c7 c1 ff ff ff ff 	mov    $0xffffffffffffffff,%rcx
  4232f8:	f2 ae                	repnz scas %es:(%rdi),%al
  4232fa:	48 f7 d1             	not    %rcx
  4232fd:	48 83 e9 02          	sub    $0x2,%rcx
  423301:	80 bc 0c a0 00 00 00 	cmpb   $0xa,0xa0(%rsp,%rcx,1)
  423308:	0a 
  423309:	75 08                	jne    423313 <checkhash+0x116>
  42330b:	c6 84 0c a0 00 00 00 	movb   $0x0,0xa0(%rsp,%rcx,1)
  423312:	00 
  423313:	48 89 da             	mov    %rbx,%rdx
  423316:	be 21 00 00 00       	mov    $0x21,%esi
  42331b:	48 89 e7             	mov    %rsp,%rdi
  42331e:	e8 2d db fd ff       	callq  400e50 <fgets@plt>
  423323:	48 85 c0             	test   %rax,%rax
  423326:	75 1c                	jne    423344 <checkhash+0x147>
  423328:	48 8d b4 24 b0 00 00 	lea    0xb0(%rsp),%rsi
  42332f:	00 
  423330:	bf d8 3e 42 00       	mov    $0x423ed8,%edi
  423335:	e8 26 da fd ff       	callq  400d60 <printf@plt>
  42333a:	bf 01 00 00 00       	mov    $0x1,%edi
  42333f:	e8 8c da fd ff       	callq  400dd0 <exit@plt>
  423344:	48 89 e7             	mov    %rsp,%rdi
  423347:	b8 00 00 00 00       	mov    $0x0,%eax
  42334c:	48 c7 c1 ff ff ff ff 	mov    $0xffffffffffffffff,%rcx
  423353:	f2 ae                	repnz scas %es:(%rdi),%al
  423355:	48 f7 d1             	not    %rcx
  423358:	48 83 e9 02          	sub    $0x2,%rcx
  42335c:	80 3c 0c 0a          	cmpb   $0xa,(%rsp,%rcx,1)
  423360:	75 04                	jne    423366 <checkhash+0x169>
  423362:	c6 04 0c 00          	movb   $0x0,(%rsp,%rcx,1)
  423366:	c6 44 24 60 00       	movb   $0x0,0x60(%rsp)
  42336b:	48 8d b4 24 e0 00 00 	lea    0xe0(%rsp),%rsi
  423372:	00 
  423373:	48 8d 7c 24 60       	lea    0x60(%rsp),%rdi
  423378:	e8 13 db fd ff       	callq  400e90 <strcat@plt>
  42337d:	48 8d b4 24 d0 00 00 	lea    0xd0(%rsp),%rsi
  423384:	00 
  423385:	48 8d 7c 24 60       	lea    0x60(%rsp),%rdi
  42338a:	e8 01 db fd ff       	callq  400e90 <strcat@plt>
  42338f:	48 8d b4 24 a0 00 00 	lea    0xa0(%rsp),%rsi
  423396:	00 
  423397:	48 8d 7c 24 60       	lea    0x60(%rsp),%rdi
  42339c:	e8 ef da fd ff       	callq  400e90 <strcat@plt>
  4233a1:	48 8d b4 24 c0 00 00 	lea    0xc0(%rsp),%rsi
  4233a8:	00 
  4233a9:	48 8d 7c 24 60       	lea    0x60(%rsp),%rdi
  4233ae:	e8 dd da fd ff       	callq  400e90 <strcat@plt>
  4233b3:	48 8d 7c 24 60       	lea    0x60(%rsp),%rdi
  4233b8:	b8 00 00 00 00       	mov    $0x0,%eax
  4233bd:	48 c7 c1 ff ff ff ff 	mov    $0xffffffffffffffff,%rcx
  4233c4:	f2 ae                	repnz scas %es:(%rdi),%al
  4233c6:	48 f7 d1             	not    %rcx
  4233c9:	48 8d 71 ff          	lea    -0x1(%rcx),%rsi
  4233cd:	48 8d 94 24 90 00 00 	lea    0x90(%rsp),%rdx
  4233d4:	00 
  4233d5:	48 8d 7c 24 60       	lea    0x60(%rsp),%rdi
  4233da:	e8 71 d9 fd ff       	callq  400d50 <MD5@plt>
  4233df:	bb 00 00 00 00       	mov    $0x0,%ebx
  4233e4:	eb 43                	jmp    423429 <checkhash+0x22c>
  4233e6:	48 63 c3             	movslq %ebx,%rax
  4233e9:	8d 3c 1b             	lea    (%rbx,%rbx,1),%edi
  4233ec:	0f b6 94 04 90 00 00 	movzbl 0x90(%rsp,%rax,1),%edx
  4233f3:	00 
  4233f4:	48 63 ff             	movslq %edi,%rdi
  4233f7:	48 8d 44 24 30       	lea    0x30(%rsp),%rax
  4233fc:	48 01 c7             	add    %rax,%rdi
  4233ff:	be 70 3e 42 00       	mov    $0x423e70,%esi
  423404:	b8 00 00 00 00       	mov    $0x0,%eax
  423409:	e8 72 da fd ff       	callq  400e80 <sprintf@plt>
  42340e:	85 c0                	test   %eax,%eax
  423410:	79 14                	jns    423426 <checkhash+0x229>
  423412:	bf 00 3f 42 00       	mov    $0x423f00,%edi
  423417:	e8 94 d9 fd ff       	callq  400db0 <puts@plt>
  42341c:	bf 01 00 00 00       	mov    $0x1,%edi
  423421:	e8 aa d9 fd ff       	callq  400dd0 <exit@plt>
  423426:	83 c3 01             	add    $0x1,%ebx
  423429:	83 fb 0f             	cmp    $0xf,%ebx
  42342c:	76 b8                	jbe    4233e6 <checkhash+0x1e9>
  42342e:	48 89 e6             	mov    %rsp,%rsi
  423431:	48 8d 7c 24 30       	lea    0x30(%rsp),%rdi
  423436:	e8 d5 da fd ff       	callq  400f10 <strcmp@plt>
  42343b:	85 c0                	test   %eax,%eax
  42343d:	75 04                	jne    423443 <checkhash+0x246>
  42343f:	b0 01                	mov    $0x1,%al
  423441:	eb 05                	jmp    423448 <checkhash+0x24b>
  423443:	b8 00 00 00 00       	mov    $0x0,%eax
  423448:	48 81 c4 f0 00 00 00 	add    $0xf0,%rsp
  42344f:	5b                   	pop    %rbx
  423450:	c3                   	retq   
  423451:	66 2e 0f 1f 84 00 00 	nopw   %cs:0x0(%rax,%rax,1)
  423458:	00 00 00 
  42345b:	0f 1f 44 00 00       	nopl   0x0(%rax,%rax,1)

0000000000423460 <__libc_csu_init>:
  423460:	41 57                	push   %r15
  423462:	41 89 ff             	mov    %edi,%r15d
  423465:	41 56                	push   %r14
  423467:	49 89 f6             	mov    %rsi,%r14
  42346a:	41 55                	push   %r13
  42346c:	49 89 d5             	mov    %rdx,%r13
  42346f:	41 54                	push   %r12
  423471:	4c 8d 25 88 19 20 00 	lea    0x201988(%rip),%r12        # 624e00 <__frame_dummy_init_array_entry>
  423478:	55                   	push   %rbp
  423479:	48 8d 2d 88 19 20 00 	lea    0x201988(%rip),%rbp        # 624e08 <__init_array_end>
  423480:	53                   	push   %rbx
  423481:	4c 29 e5             	sub    %r12,%rbp
  423484:	31 db                	xor    %ebx,%ebx
  423486:	48 c1 fd 03          	sar    $0x3,%rbp
  42348a:	48 83 ec 08          	sub    $0x8,%rsp
  42348e:	e8 8d d8 fd ff       	callq  400d20 <_init>
  423493:	48 85 ed             	test   %rbp,%rbp
  423496:	74 1e                	je     4234b6 <__libc_csu_init+0x56>
  423498:	0f 1f 84 00 00 00 00 	nopl   0x0(%rax,%rax,1)
  42349f:	00 
  4234a0:	4c 89 ea             	mov    %r13,%rdx
  4234a3:	4c 89 f6             	mov    %r14,%rsi
  4234a6:	44 89 ff             	mov    %r15d,%edi
  4234a9:	41 ff 14 dc          	callq  *(%r12,%rbx,8)
  4234ad:	48 83 c3 01          	add    $0x1,%rbx
  4234b1:	48 39 eb             	cmp    %rbp,%rbx
  4234b4:	75 ea                	jne    4234a0 <__libc_csu_init+0x40>
  4234b6:	48 83 c4 08          	add    $0x8,%rsp
  4234ba:	5b                   	pop    %rbx
  4234bb:	5d                   	pop    %rbp
  4234bc:	41 5c                	pop    %r12
  4234be:	41 5d                	pop    %r13
  4234c0:	41 5e                	pop    %r14
  4234c2:	41 5f                	pop    %r15
  4234c4:	c3                   	retq   
  4234c5:	90                   	nop
  4234c6:	66 2e 0f 1f 84 00 00 	nopw   %cs:0x0(%rax,%rax,1)
  4234cd:	00 00 00 

00000000004234d0 <__libc_csu_fini>:
  4234d0:	f3 c3                	repz retq 

Disassembly of section .init:

0000000000400d20 <_init>:
  400d20:	48 83 ec 08          	sub    $0x8,%rsp
  400d24:	48 8b 05 cd 42 22 00 	mov    0x2242cd(%rip),%rax        # 624ff8 <__gmon_start__>
  400d2b:	48 85 c0             	test   %rax,%rax
  400d2e:	74 05                	je     400d35 <_init+0x15>
  400d30:	e8 6b 00 00 00       	callq  400da0 <__gmon_start__@plt>
  400d35:	48 83 c4 08          	add    $0x8,%rsp
  400d39:	c3                   	retq   

Disassembly of section .plt:

0000000000400d40 <.plt>:
  400d40:	ff 35 c2 42 22 00    	pushq  0x2242c2(%rip)        # 625008 <_GLOBAL_OFFSET_TABLE_+0x8>
  400d46:	ff 25 c4 42 22 00    	jmpq   *0x2242c4(%rip)        # 625010 <_GLOBAL_OFFSET_TABLE_+0x10>
  400d4c:	0f 1f 40 00          	nopl   0x0(%rax)

0000000000400d50 <MD5@plt>:
  400d50:	ff 25 c2 42 22 00    	jmpq   *0x2242c2(%rip)        # 625018 <MD5@libcrypto.so.10>
  400d56:	68 00 00 00 00       	pushq  $0x0
  400d5b:	e9 e0 ff ff ff       	jmpq   400d40 <.plt>

0000000000400d60 <printf@plt>:
  400d60:	ff 25 ba 42 22 00    	jmpq   *0x2242ba(%rip)        # 625020 <printf@GLIBC_2.2.5>
  400d66:	68 01 00 00 00       	pushq  $0x1
  400d6b:	e9 d0 ff ff ff       	jmpq   400d40 <.plt>

0000000000400d70 <memset@plt>:
  400d70:	ff 25 b2 42 22 00    	jmpq   *0x2242b2(%rip)        # 625028 <memset@GLIBC_2.2.5>
  400d76:	68 02 00 00 00       	pushq  $0x2
  400d7b:	e9 c0 ff ff ff       	jmpq   400d40 <.plt>

0000000000400d80 <close@plt>:
  400d80:	ff 25 aa 42 22 00    	jmpq   *0x2242aa(%rip)        # 625030 <close@GLIBC_2.2.5>
  400d86:	68 03 00 00 00       	pushq  $0x3
  400d8b:	e9 b0 ff ff ff       	jmpq   400d40 <.plt>

0000000000400d90 <gethostbyname@plt>:
  400d90:	ff 25 a2 42 22 00    	jmpq   *0x2242a2(%rip)        # 625038 <gethostbyname@GLIBC_2.2.5>
  400d96:	68 04 00 00 00       	pushq  $0x4
  400d9b:	e9 a0 ff ff ff       	jmpq   400d40 <.plt>

0000000000400da0 <__gmon_start__@plt>:
  400da0:	ff 25 9a 42 22 00    	jmpq   *0x22429a(%rip)        # 625040 <__gmon_start__>
  400da6:	68 05 00 00 00       	pushq  $0x5
  400dab:	e9 90 ff ff ff       	jmpq   400d40 <.plt>

0000000000400db0 <puts@plt>:
  400db0:	ff 25 92 42 22 00    	jmpq   *0x224292(%rip)        # 625048 <puts@GLIBC_2.2.5>
  400db6:	68 06 00 00 00       	pushq  $0x6
  400dbb:	e9 80 ff ff ff       	jmpq   400d40 <.plt>

0000000000400dc0 <__isoc99_sscanf@plt>:
  400dc0:	ff 25 8a 42 22 00    	jmpq   *0x22428a(%rip)        # 625050 <__isoc99_sscanf@GLIBC_2.7>
  400dc6:	68 07 00 00 00       	pushq  $0x7
  400dcb:	e9 70 ff ff ff       	jmpq   400d40 <.plt>

0000000000400dd0 <exit@plt>:
  400dd0:	ff 25 82 42 22 00    	jmpq   *0x224282(%rip)        # 625058 <exit@GLIBC_2.2.5>
  400dd6:	68 08 00 00 00       	pushq  $0x8
  400ddb:	e9 60 ff ff ff       	jmpq   400d40 <.plt>

0000000000400de0 <strcasecmp@plt>:
  400de0:	ff 25 7a 42 22 00    	jmpq   *0x22427a(%rip)        # 625060 <strcasecmp@GLIBC_2.2.5>
  400de6:	68 09 00 00 00       	pushq  $0x9
  400deb:	e9 50 ff ff ff       	jmpq   400d40 <.plt>

0000000000400df0 <getopt@plt>:
  400df0:	ff 25 72 42 22 00    	jmpq   *0x224272(%rip)        # 625068 <getopt@GLIBC_2.2.5>
  400df6:	68 0a 00 00 00       	pushq  $0xa
  400dfb:	e9 40 ff ff ff       	jmpq   400d40 <.plt>

0000000000400e00 <read@plt>:
  400e00:	ff 25 6a 42 22 00    	jmpq   *0x22426a(%rip)        # 625070 <read@GLIBC_2.2.5>
  400e06:	68 0b 00 00 00       	pushq  $0xb
  400e0b:	e9 30 ff ff ff       	jmpq   400d40 <.plt>

0000000000400e10 <strncmp@plt>:
  400e10:	ff 25 62 42 22 00    	jmpq   *0x224262(%rip)        # 625078 <strncmp@GLIBC_2.2.5>
  400e16:	68 0c 00 00 00       	pushq  $0xc
  400e1b:	e9 20 ff ff ff       	jmpq   400d40 <.plt>

0000000000400e20 <fopen@plt>:
  400e20:	ff 25 5a 42 22 00    	jmpq   *0x22425a(%rip)        # 625080 <fopen@GLIBC_2.2.5>
  400e26:	68 0d 00 00 00       	pushq  $0xd
  400e2b:	e9 10 ff ff ff       	jmpq   400d40 <.plt>

0000000000400e30 <__libc_start_main@plt>:
  400e30:	ff 25 52 42 22 00    	jmpq   *0x224252(%rip)        # 625088 <__libc_start_main@GLIBC_2.2.5>
  400e36:	68 0e 00 00 00       	pushq  $0xe
  400e3b:	e9 00 ff ff ff       	jmpq   400d40 <.plt>

0000000000400e40 <srandom@plt>:
  400e40:	ff 25 4a 42 22 00    	jmpq   *0x22424a(%rip)        # 625090 <srandom@GLIBC_2.2.5>
  400e46:	68 0f 00 00 00       	pushq  $0xf
  400e4b:	e9 f0 fe ff ff       	jmpq   400d40 <.plt>

0000000000400e50 <fgets@plt>:
  400e50:	ff 25 42 42 22 00    	jmpq   *0x224242(%rip)        # 625098 <fgets@GLIBC_2.2.5>
  400e56:	68 10 00 00 00       	pushq  $0x10
  400e5b:	e9 e0 fe ff ff       	jmpq   400d40 <.plt>

0000000000400e60 <_IO_getc@plt>:
  400e60:	ff 25 3a 42 22 00    	jmpq   *0x22423a(%rip)        # 6250a0 <_IO_getc@GLIBC_2.2.5>
  400e66:	68 11 00 00 00       	pushq  $0x11
  400e6b:	e9 d0 fe ff ff       	jmpq   400d40 <.plt>

0000000000400e70 <bcopy@plt>:
  400e70:	ff 25 32 42 22 00    	jmpq   *0x224232(%rip)        # 6250a8 <bcopy@GLIBC_2.2.5>
  400e76:	68 12 00 00 00       	pushq  $0x12
  400e7b:	e9 c0 fe ff ff       	jmpq   400d40 <.plt>

0000000000400e80 <sprintf@plt>:
  400e80:	ff 25 2a 42 22 00    	jmpq   *0x22422a(%rip)        # 6250b0 <sprintf@GLIBC_2.2.5>
  400e86:	68 13 00 00 00       	pushq  $0x13
  400e8b:	e9 b0 fe ff ff       	jmpq   400d40 <.plt>

0000000000400e90 <strcat@plt>:
  400e90:	ff 25 22 42 22 00    	jmpq   *0x224222(%rip)        # 6250b8 <strcat@GLIBC_2.2.5>
  400e96:	68 14 00 00 00       	pushq  $0x14
  400e9b:	e9 a0 fe ff ff       	jmpq   400d40 <.plt>

0000000000400ea0 <strtol@plt>:
  400ea0:	ff 25 1a 42 22 00    	jmpq   *0x22421a(%rip)        # 6250c0 <strtol@GLIBC_2.2.5>
  400ea6:	68 15 00 00 00       	pushq  $0x15
  400eab:	e9 90 fe ff ff       	jmpq   400d40 <.plt>

0000000000400eb0 <connect@plt>:
  400eb0:	ff 25 12 42 22 00    	jmpq   *0x224212(%rip)        # 6250c8 <connect@GLIBC_2.2.5>
  400eb6:	68 16 00 00 00       	pushq  $0x16
  400ebb:	e9 80 fe ff ff       	jmpq   400d40 <.plt>

0000000000400ec0 <gethostname@plt>:
  400ec0:	ff 25 0a 42 22 00    	jmpq   *0x22420a(%rip)        # 6250d0 <gethostname@GLIBC_2.2.5>
  400ec6:	68 17 00 00 00       	pushq  $0x17
  400ecb:	e9 70 fe ff ff       	jmpq   400d40 <.plt>

0000000000400ed0 <signal@plt>:
  400ed0:	ff 25 02 42 22 00    	jmpq   *0x224202(%rip)        # 6250d8 <signal@GLIBC_2.2.5>
  400ed6:	68 18 00 00 00       	pushq  $0x18
  400edb:	e9 60 fe ff ff       	jmpq   400d40 <.plt>

0000000000400ee0 <socket@plt>:
  400ee0:	ff 25 fa 41 22 00    	jmpq   *0x2241fa(%rip)        # 6250e0 <socket@GLIBC_2.2.5>
  400ee6:	68 19 00 00 00       	pushq  $0x19
  400eeb:	e9 50 fe ff ff       	jmpq   400d40 <.plt>

0000000000400ef0 <alarm@plt>:
  400ef0:	ff 25 f2 41 22 00    	jmpq   *0x2241f2(%rip)        # 6250e8 <alarm@GLIBC_2.2.5>
  400ef6:	68 1a 00 00 00       	pushq  $0x1a
  400efb:	e9 40 fe ff ff       	jmpq   400d40 <.plt>

0000000000400f00 <__errno_location@plt>:
  400f00:	ff 25 ea 41 22 00    	jmpq   *0x2241ea(%rip)        # 6250f0 <__errno_location@GLIBC_2.2.5>
  400f06:	68 1b 00 00 00       	pushq  $0x1b
  400f0b:	e9 30 fe ff ff       	jmpq   400d40 <.plt>

0000000000400f10 <strcmp@plt>:
  400f10:	ff 25 e2 41 22 00    	jmpq   *0x2241e2(%rip)        # 6250f8 <strcmp@GLIBC_2.2.5>
  400f16:	68 1c 00 00 00       	pushq  $0x1c
  400f1b:	e9 20 fe ff ff       	jmpq   400d40 <.plt>

0000000000400f20 <strcpy@plt>:
  400f20:	ff 25 da 41 22 00    	jmpq   *0x2241da(%rip)        # 625100 <strcpy@GLIBC_2.2.5>
  400f26:	68 1d 00 00 00       	pushq  $0x1d
  400f2b:	e9 10 fe ff ff       	jmpq   400d40 <.plt>

0000000000400f30 <munmap@plt>:
  400f30:	ff 25 d2 41 22 00    	jmpq   *0x2241d2(%rip)        # 625108 <munmap@GLIBC_2.2.5>
  400f36:	68 1e 00 00 00       	pushq  $0x1e
  400f3b:	e9 00 fe ff ff       	jmpq   400d40 <.plt>

0000000000400f40 <random@plt>:
  400f40:	ff 25 ca 41 22 00    	jmpq   *0x2241ca(%rip)        # 625110 <random@GLIBC_2.2.5>
  400f46:	68 1f 00 00 00       	pushq  $0x1f
  400f4b:	e9 f0 fd ff ff       	jmpq   400d40 <.plt>

0000000000400f50 <fprintf@plt>:
  400f50:	ff 25 c2 41 22 00    	jmpq   *0x2241c2(%rip)        # 625118 <fprintf@GLIBC_2.2.5>
  400f56:	68 20 00 00 00       	pushq  $0x20
  400f5b:	e9 e0 fd ff ff       	jmpq   400d40 <.plt>

0000000000400f60 <write@plt>:
  400f60:	ff 25 ba 41 22 00    	jmpq   *0x2241ba(%rip)        # 625120 <write@GLIBC_2.2.5>
  400f66:	68 21 00 00 00       	pushq  $0x21
  400f6b:	e9 d0 fd ff ff       	jmpq   400d40 <.plt>

0000000000400f70 <strtoul@plt>:
  400f70:	ff 25 b2 41 22 00    	jmpq   *0x2241b2(%rip)        # 625128 <strtoul@GLIBC_2.2.5>
  400f76:	68 22 00 00 00       	pushq  $0x22
  400f7b:	e9 c0 fd ff ff       	jmpq   400d40 <.plt>

0000000000400f80 <memcpy@plt>:
  400f80:	ff 25 aa 41 22 00    	jmpq   *0x2241aa(%rip)        # 625130 <memcpy@GLIBC_2.14>
  400f86:	68 23 00 00 00       	pushq  $0x23
  400f8b:	e9 b0 fd ff ff       	jmpq   400d40 <.plt>

0000000000400f90 <mmap@plt>:
  400f90:	ff 25 a2 41 22 00    	jmpq   *0x2241a2(%rip)        # 625138 <mmap@GLIBC_2.2.5>
  400f96:	68 24 00 00 00       	pushq  $0x24
  400f9b:	e9 a0 fd ff ff       	jmpq   400d40 <.plt>

0000000000400fa0 <time@plt>:
  400fa0:	ff 25 9a 41 22 00    	jmpq   *0x22419a(%rip)        # 625140 <time@GLIBC_2.2.5>
  400fa6:	68 25 00 00 00       	pushq  $0x25
  400fab:	e9 90 fd ff ff       	jmpq   400d40 <.plt>

Disassembly of section .fini:

00000000004234d4 <_fini>:
  4234d4:	48 83 ec 08          	sub    $0x8,%rsp
  4234d8:	48 83 c4 08          	add    $0x8,%rsp
  4234dc:	c3                   	retq   
